

HI-TECH Software PIC LITE Macro Assembler V9.82 build 9453 
                                                                                               Sun Apr 20 22:21:35 2025

HI-TECH Software Omniscient Code Generator (Lite mode) build 9453
     1  0000                     opt subtitle "HI-TECH Software Omniscient Code Generator (Lite mode) build 9453"
     2                           
     3                           opt pagewidth 120
     4                           
     5                           	opt lm
     6                           
     7                           	processor	16F877A
     8                           clrc	macro
     9                           	bcf	3,0
    10  0000                     	endm
    11                           clrz	macro
    12                           	bcf	3,2
    13  0000                     	endm
    14                           setc	macro
    15                           	bsf	3,0
    16  0000                     	endm
    17                           setz	macro
    18                           	bsf	3,2
    19  0000                     	endm
    20                           skipc	macro
    21                           	btfss	3,0
    22  0000                     	endm
    23                           skipz	macro
    24                           	btfss	3,2
    25  0000                     	endm
    26                           skipnc	macro
    27                           	btfsc	3,0
    28  0000                     	endm
    29                           skipnz	macro
    30                           	btfsc	3,2
    31  0000                     	endm
    32  0000                     indf	equ	0
    33  0000                     indf0	equ	0
    34  0002                     pc	equ	2
    35  0002                     pcl	equ	2
    36  0003                     status	equ	3
    37  0004                     fsr	equ	4
    38  0004                     fsr0	equ	4
    39  0001                     c	equ	1
    40  0000                     z	equ	0
    41  000A                     pclath	equ	10
    42                           # 4 "C:\Users\may\OneDrive\WeiJi\Mplab_workspace\work_together1\Untitled.c"
    43                           	psect config,class=CONFIG,delta=2 ;#
    44                           # 4 "C:\Users\may\OneDrive\WeiJi\Mplab_workspace\work_together1\Untitled.c"
    45  2007  FF29               	dw 0xFF29 ;#
    46                           	FNCALL	_main,_lcd_init
    47                           	FNCALL	_main,_set_pwm_frequency
    48                           	FNCALL	_main,_lcd_clear
    49                           	FNCALL	_main,_lcd_puts
    50                           	FNCALL	_main,_lcd_putnumf
    51                           	FNCALL	_main,_keyboard_scan
    52                           	FNCALL	_main,___bmul
    53                           	FNCALL	_main,_lcd_putc
    54                           	FNCALL	_lcd_putnumf,___fttol
    55                           	FNCALL	_lcd_putnumf,___llmod
    56                           	FNCALL	_lcd_putnumf,___lldiv
    57                           	FNCALL	_lcd_putnumf,___lltoft
    58                           	FNCALL	_lcd_putnumf,___ftneg
    59                           	FNCALL	_lcd_putnumf,___ftadd
    60                           	FNCALL	_lcd_putnumf,___lmul
    61                           	FNCALL	_lcd_putnumf,___ftmul
    62                           	FNCALL	_lcd_putnumf,_lcd_puts
    63                           	FNCALL	_lcd_puts,_lcd_data
    64                           	FNCALL	_lcd_clear,_lcd_command
    65                           	FNCALL	_lcd_clear,_delay_ms
    66                           	FNCALL	_set_pwm_frequency,___ftdiv
    67                           	FNCALL	_set_pwm_frequency,___fttol
    68                           	FNCALL	_lcd_init,_delay_ms
    69                           	FNCALL	_lcd_init,_lcd_command
    70                           	FNCALL	_lcd_putc,_lcd_data
    71                           	FNCALL	___lltoft,___ftpack
    72                           	FNCALL	___ftmul,___ftpack
    73                           	FNCALL	___ftdiv,___ftpack
    74                           	FNCALL	___ftadd,___ftpack
    75                           	FNCALL	_lcd_command,_delay_ms
    76                           	FNCALL	_keyboard_scan,_delay_ms
    77                           	FNCALL	_lcd_data,_delay_ms
    78                           	FNROOT	_main
    79                           	FNCALL	intlevel1,_isr
    80                           	global	intlevel1
    81                           	FNROOT	intlevel1
    82                           	global	keyboard_scan@F1153
    83                           	global	_TABLE
    84                           	global	_preres
    85                           	global	main@F1117
    86                           psect	idataBANK0,class=CODE,space=0,delta=2
    87                           global __pidataBANK0
    88  07F9                     __pidataBANK0:
    89                           	file	"C:\Users\may\OneDrive\WeiJi\Mplab_workspace\work_together1\Untitled.c"
    90                           	line	268
    91                           
    92                           ;initializer for keyboard_scan@F1153
    93  07F9  34EF               	retlw	0EFh
    94  07FA  34DF               	retlw	0DFh
    95  07FB  34BF               	retlw	0BFh
    96  07FC  347F               	retlw	07Fh
    97                           psect	idataBANK3,class=CODE,space=0,delta=2
    98                           global __pidataBANK3
    99  0AB9                     __pidataBANK3:
   100                           	line	30
   101                           
   102                           ;initializer for _TABLE
   103  0AB9  3431               	retlw	031h
   104  0ABA  3432               	retlw	032h
   105  0ABB  3433               	retlw	033h
   106  0ABC  3441               	retlw	041h
   107  0ABD  3434               	retlw	034h
   108  0ABE  3435               	retlw	035h
   109  0ABF  3436               	retlw	036h
   110  0AC0  3442               	retlw	042h
   111  0AC1  3437               	retlw	037h
   112  0AC2  3438               	retlw	038h
   113  0AC3  3439               	retlw	039h
   114  0AC4  3443               	retlw	043h
   115  0AC5  342A               	retlw	02Ah
   116  0AC6  3430               	retlw	030h
   117  0AC7  3423               	retlw	023h
   118  0AC8  3444               	retlw	044h
   119                           psect	idataCOMMON,class=CODE,space=0,delta=2
   120                           global __pidataCOMMON
   121  07FD                     __pidataCOMMON:
   122                           	line	29
   123                           
   124                           ;initializer for _preres
   125  07FD  34FF               	retlw	0FFh
   126                           psect	idataBANK1,class=CODE,space=0,delta=2
   127                           global __pidataBANK1
   128  0ADB                     __pidataBANK1:
   129                           	line	86
   130                           
   131                           ;initializer for main@F1117
   132  0ADB  34CD               	retlw	0xcd
   133  0ADC  34CC               	retlw	0xcc
   134  0ADD  343D               	retlw	0x3d
   135                           
   136  0ADE  3400               	retlw	0x0
   137  0ADF  3480               	retlw	0x80
   138  0AE0  343F               	retlw	0x3f
   139                           
   140  0AE1  3400               	retlw	0x0
   141  0AE2  3420               	retlw	0x20
   142  0AE3  3441               	retlw	0x41
   143                           
   144  0AE4  3400               	retlw	0x0
   145  0AE5  3420               	retlw	0x20
   146  0AE6  3442               	retlw	0x42
   147                           
   148  0AE7  3400               	retlw	0x0
   149  0AE8  34C8               	retlw	0xc8
   150  0AE9  3442               	retlw	0x42
   151                           
   152  0AEA  3400               	retlw	0x0
   153  0AEB  347A               	retlw	0x7a
   154  0AEC  3444               	retlw	0x44
   155                           
   156                           	global	_target_count
   157                           	global	_timer_count
   158                           	global	_current_frequency
   159                           	global	_PORTB
   160  0006                     _PORTB	set	6
   161                           	global	_PORTDbits
   162  0008                     _PORTDbits	set	8
   163                           	global	_TMR0
   164  0001                     _TMR0	set	1
   165                           	global	_CARRY
   166  0018                     _CARRY	set	24
   167                           	global	_GIE
   168  005F                     _GIE	set	95
   169                           	global	_PEIE
   170  005E                     _PEIE	set	94
   171                           	global	_TMR0IE
   172  005D                     _TMR0IE	set	93
   173                           	global	_TMR0IF
   174  005A                     _TMR0IF	set	90
   175                           	global	_OPTION_REG
   176  0081                     _OPTION_REG	set	129
   177                           	global	_TRISB
   178  0086                     _TRISB	set	134
   179                           	global	_TRISD
   180  0088                     _TRISD	set	136
   181                           	global	_TRISE
   182  0089                     _TRISE	set	137
   183                           	global	_EEADR
   184  010D                     _EEADR	set	269
   185                           	global	_EEDATA
   186  010C                     _EEDATA	set	268
   187                           	global	_EECON1
   188  018C                     _EECON1	set	396
   189                           	global	_EECON2
   190  018D                     _EECON2	set	397
   191                           	global	_RD
   192  0C60                     _RD	set	3168
   193                           	global	_WR
   194  0C61                     _WR	set	3169
   195                           	global	_WREN
   196  0C62                     _WREN	set	3170
   197                           psect	strings,class=STRING,delta=2
   198                           global __pstrings
   199  0800                     __pstrings:
   200                           ;	global	stringdir,stringtab,__stringbase
   201  0800                     stringtab:
   202                           ;	String table - string pointers are 1 byte each
   203  0800  1BFF               	btfsc	(btemp+1),7
   204  0801  280A               	ljmp	stringcode
   205  0802  1383               	bcf	status,7
   206  0803  187F               	btfsc	(btemp+1),0
   207  0804  1783               	bsf	status,7
   208  0805  0800               	movf	indf,w
   209  0806  0A84               	incf fsr
   210  0807  1903               skipnz
   211  0808  0AFF               incf btemp+1
   212  0809  0008               	return
   213  080A                     stringcode:stringdir:
      + 080A                     stringdir:	
   214  080A  3008               movlw high(stringdir)
   215  080B  008A               movwf pclath
   216  080C  0804               movf fsr,w
   217  080D  0A84               incf fsr
   218  080E  0782               	addwf pc
   219  080F                     __stringbase:
   220  080F  3400               	retlw	0
   221                           psect	strings
   222                           	
   223  0810                     STR_3:	
   224  0810  3420               	retlw	32	;' '
   225  0811  3446               	retlw	70	;'F'
   226  0812  3472               	retlw	114	;'r'
   227  0813  3465               	retlw	101	;'e'
   228  0814  3471               	retlw	113	;'q'
   229  0815  343A               	retlw	58	;':'
   230  0816  3420               	retlw	32	;' '
   231  0817  3400               	retlw	0
   232                           psect	strings
   233                           	
   234  0818                     STR_2:	
   235  0818  3449               	retlw	73	;'I'
   236  0819  346E               	retlw	110	;'n'
   237  081A  3469               	retlw	105	;'i'
   238  081B  3474               	retlw	116	;'t'
   239  081C  3469               	retlw	105	;'i'
   240  081D  3461               	retlw	97	;'a'
   241  081E  346C               	retlw	108	;'l'
   242  081F  3400               	retlw	0
   243                           psect	strings
   244                           	
   245  0820                     STR_1:	
   246  0820  344B               	retlw	75	;'K'
   247  0821  3465               	retlw	101	;'e'
   248  0822  3479               	retlw	121	;'y'
   249  0823  343A               	retlw	58	;':'
   250  0824  3420               	retlw	32	;' '
   251  0825  3400               	retlw	0
   252                           psect	strings
   253                           	
   254  0826                     STR_4:	
   255  0826  3448               	retlw	72	;'H'
   256  0827  347A               	retlw	122	;'z'
   257  0828  3400               	retlw	0
   258                           psect	strings
   259  0826                     STR_7	equ	STR_4+0
   260  0820                     STR_5	equ	STR_1+0
   261  0810                     STR_6	equ	STR_3+0
   262                           	file	"work_together1.as"
   263                           	line	#
   264                           psect cinit,class=CODE,delta=2
   265                           global start_initialization
   266  0BCB                     start_initialization:
   267                           
   268                           psect	bssCOMMON,class=COMMON,space=1
   269                           global __pbssCOMMON
   270  0075                     __pbssCOMMON:
   271  0075                     _timer_count:
   272  0075                            ds      4
   273                           
   274                           psect	dataCOMMON,class=COMMON,space=1
   275                           global __pdataCOMMON
   276  0079                     __pdataCOMMON:
   277                           	file	"C:\Users\may\OneDrive\WeiJi\Mplab_workspace\work_together1\Untitled.c"
   278                           	line	29
   279  0079                     _preres:
   280  0079                            ds      1
   281                           
   282                           psect	bssBANK0,class=BANK0,space=1
   283                           global __pbssBANK0
   284  0065                     __pbssBANK0:
   285  0065                     _target_count:
   286  0065                            ds      4
   287                           
   288                           psect	dataBANK0,class=BANK0,space=1
   289                           global __pdataBANK0
   290  0069                     __pdataBANK0:
   291                           	file	"C:\Users\may\OneDrive\WeiJi\Mplab_workspace\work_together1\Untitled.c"
   292                           	line	268
   293  0069                     keyboard_scan@F1153:
   294  0069                            ds      4
   295                           
   296                           psect	bssBANK1,class=BANK1,space=1
   297                           global __pbssBANK1
   298  00EC                     __pbssBANK1:
   299  00EC                     _current_frequency:
   300  00EC                            ds      3
   301                           
   302                           psect	dataBANK1,class=BANK1,space=1
   303                           global __pdataBANK1
   304  00DA                     __pdataBANK1:
   305                           	file	"C:\Users\may\OneDrive\WeiJi\Mplab_workspace\work_together1\Untitled.c"
   306                           	line	86
   307  00DA                     main@F1117:
   308  00DA                            ds      18
   309                           
   310                           psect	dataBANK3,class=BANK3,space=1
   311                           global __pdataBANK3
   312  0190                     __pdataBANK3:
   313                           	file	"C:\Users\may\OneDrive\WeiJi\Mplab_workspace\work_together1\Untitled.c"
   314                           	line	30
   315  0190                     _TABLE:
   316  0190                            ds      16
   317                           
   318                           ; Clear objects allocated to COMMON
   319                           psect cinit,class=CODE,delta=2
   320  0BCB  01F5               	clrf	((__pbssCOMMON)+0)&07Fh
   321  0BCC  01F6               	clrf	((__pbssCOMMON)+1)&07Fh
   322  0BCD  01F7               	clrf	((__pbssCOMMON)+2)&07Fh
   323  0BCE  01F8               	clrf	((__pbssCOMMON)+3)&07Fh
   324                           ; Clear objects allocated to BANK0
   325                           psect cinit,class=CODE,delta=2
   326  0BCF  01E5               	clrf	((__pbssBANK0)+0)&07Fh
   327  0BD0  01E6               	clrf	((__pbssBANK0)+1)&07Fh
   328  0BD1  01E7               	clrf	((__pbssBANK0)+2)&07Fh
   329  0BD2  01E8               	clrf	((__pbssBANK0)+3)&07Fh
   330                           ; Clear objects allocated to BANK1
   331                           psect cinit,class=CODE,delta=2
   332  0BD3  1683               	bsf	status, 5	;RP0=1, select bank1
   333  0BD4  1303               	bcf	status, 6	;RP1=0, select bank1
   334  0BD5  01EC               	clrf	((__pbssBANK1)+0)&07Fh
   335  0BD6  01ED               	clrf	((__pbssBANK1)+1)&07Fh
   336  0BD7  01EE               	clrf	((__pbssBANK1)+2)&07Fh
   337                           global btemp
   338                           psect inittext,class=CODE,delta=2
   339                           global init_fetch,btemp
   340                           ;	Called with low address in FSR and high address in W
   341  0AED                     init_fetch:
   342  0AED  087E               	movf btemp,w
   343  0AEE  008A               	movwf pclath
   344  0AEF  087F               	movf btemp+1,w
   345  0AF0  0082               	movwf pc
   346                           global init_ram
   347                           ;Called with:
   348                           ;	high address of idata address in btemp 
   349                           ;	low address of idata address in btemp+1 
   350                           ;	low address of data in FSR
   351                           ;	high address + 1 of data in btemp-1
   352  0AF1                     init_ram:
   353  0AF1  120A  158A  22ED   	fcall init_fetch
              120A  158A         
   354  0AF6  0080               	movwf indf,f
   355  0AF7  0A84               	incf fsr,f
   356  0AF8  0804               	movf fsr,w
   357  0AF9  067D               	xorwf btemp-1,w
   358  0AFA  1903               	btfsc status,2
   359  0AFB  3400               	retlw 0
   360  0AFC  0AFF               	incf btemp+1,f
   361  0AFD  1903               	btfsc status,2
   362  0AFE  0AFE               	incf btemp,f
   363  0AFF  2AF1               	goto init_ram
   364                           ; Initialize objects allocated to BANK3
   365                           psect cinit,class=CODE,delta=2
   366                           global init_ram, __pidataBANK3
   367  0BD8  1783               	bsf	status, 7	;select IRP bank2
   368  0BD9  30A0               	movlw low(__pdataBANK3+16)
   369  0BDA  00FD               	movwf btemp-1,f
   370  0BDB  300A               	movlw high(__pidataBANK3)
   371  0BDC  00FE               	movwf btemp,f
   372  0BDD  30B9               	movlw low(__pidataBANK3)
   373  0BDE  00FF               	movwf btemp+1,f
   374  0BDF  3090               	movlw low(__pdataBANK3)
   375  0BE0  0084               	movwf fsr,f
   376  0BE1  120A  158A  22F1   	fcall init_ram
              120A  158A         
   377                           ; Initialize objects allocated to BANK1
   378                           psect cinit,class=CODE,delta=2
   379                           global init_ram, __pidataBANK1
   380  0BE6  1383               	bcf	status, 7	;select IRP bank0
   381  0BE7  30EC               	movlw low(__pdataBANK1+18)
   382  0BE8  00FD               	movwf btemp-1,f
   383  0BE9  300A               	movlw high(__pidataBANK1)
   384  0BEA  00FE               	movwf btemp,f
   385  0BEB  30DB               	movlw low(__pidataBANK1)
   386  0BEC  00FF               	movwf btemp+1,f
   387  0BED  30DA               	movlw low(__pdataBANK1)
   388  0BEE  0084               	movwf fsr,f
   389  0BEF  120A  158A  22F1   	fcall init_ram
              120A  158A         
   390                           ; Initialize objects allocated to BANK0
   391                           psect cinit,class=CODE,delta=2
   392                           global init_ram, __pidataBANK0
   393  0BF4  306D               	movlw low(__pdataBANK0+4)
   394  0BF5  00FD               	movwf btemp-1,f
   395  0BF6  3007               	movlw high(__pidataBANK0)
   396  0BF7  00FE               	movwf btemp,f
   397  0BF8  30F9               	movlw low(__pidataBANK0)
   398  0BF9  00FF               	movwf btemp+1,f
   399  0BFA  3069               	movlw low(__pdataBANK0)
   400  0BFB  0084               	movwf fsr,f
   401  0BFC  120A  158A  22F1   	fcall init_ram
              120A  158A         
   402                           ; Initialize objects allocated to COMMON
   403                           	global __pidataCOMMON
   404                           psect cinit,class=CODE,delta=2
   405  0C01  120A  118A  27FD   	fcall	__pidataCOMMON+0		;fetch initializer
              120A  158A         
   406  0C06  00F9               	movwf	__pdataCOMMON+0&07fh		
   407                           psect cinit,class=CODE,delta=2
   408                           global end_of_initialization
   409                           
   410                           ;End of C runtime variable initialization code
   411                           
   412  0C07                     end_of_initialization:
   413  0C07  0183               clrf status
   414  0C08  120A  118A  2AF6   ljmp _main	;jump to C main() function
   415                           psect	cstackBANK1,class=BANK1,space=1
   416                           global __pcstackBANK1
   417  00A0                     __pcstackBANK1:
   418                           	global	lcd_putnumf@buffer
   419  00A0                     lcd_putnumf@buffer:	; 16 bytes @ 0x0
   420  00A0                     	ds	16
   421                           	global	lcd_putnumf@frac_part
   422  00B0                     lcd_putnumf@frac_part:	; 3 bytes @ 0x10
   423  00B0                     	ds	3
   424                           	global	lcd_putnumf@temp
   425  00B3                     lcd_putnumf@temp:	; 1 bytes @ 0x13
   426  00B3                     	ds	1
   427                           	global	lcd_putnumf@j
   428  00B4                     lcd_putnumf@j:	; 1 bytes @ 0x14
   429  00B4                     	ds	1
   430                           	global	lcd_putnumf@multiplier
   431  00B5                     lcd_putnumf@multiplier:	; 4 bytes @ 0x15
   432  00B5                     	ds	4
   433                           	global	lcd_putnumf@frac
   434  00B9                     lcd_putnumf@frac:	; 4 bytes @ 0x19
   435  00B9                     	ds	4
   436                           	global	lcd_putnumf@start
   437  00BD                     lcd_putnumf@start:	; 1 bytes @ 0x1D
   438  00BD                     	ds	1
   439                           	global	lcd_putnumf@end
   440  00BE                     lcd_putnumf@end:	; 1 bytes @ 0x1E
   441  00BE                     	ds	1
   442                           	global	lcd_putnumf@int_part
   443  00BF                     lcd_putnumf@int_part:	; 4 bytes @ 0x1F
   444  00BF                     	ds	4
   445                           	global	lcd_putnumf@i
   446  00C3                     lcd_putnumf@i:	; 1 bytes @ 0x23
   447  00C3                     	ds	1
   448                           	global	main@frequency_map
   449  00C4                     main@frequency_map:	; 18 bytes @ 0x24
   450  00C4                     	ds	18
   451                           	global	main@map_index
   452  00D6                     main@map_index:	; 2 bytes @ 0x36
   453  00D6                     	ds	2
   454                           	global	main@key_index
   455  00D8                     main@key_index:	; 1 bytes @ 0x38
   456  00D8                     	ds	1
   457                           	global	main@key_char
   458  00D9                     main@key_char:	; 1 bytes @ 0x39
   459  00D9                     	ds	1
   460                           psect	cstackCOMMON,class=COMMON,space=1
   461                           global __pcstackCOMMON
   462  0070                     __pcstackCOMMON:
   463                           	global	?_lcd_data
   464  0070                     ?_lcd_data:	; 0 bytes @ 0x0
   465                           	global	?_lcd_init
   466  0070                     ?_lcd_init:	; 0 bytes @ 0x0
   467                           	global	?_lcd_clear
   468  0070                     ?_lcd_clear:	; 0 bytes @ 0x0
   469                           	global	?_lcd_command
   470  0070                     ?_lcd_command:	; 0 bytes @ 0x0
   471                           	global	?_lcd_putc
   472  0070                     ?_lcd_putc:	; 0 bytes @ 0x0
   473                           	global	?_main
   474  0070                     ?_main:	; 0 bytes @ 0x0
   475                           	global	?_isr
   476  0070                     ?_isr:	; 0 bytes @ 0x0
   477                           	global	??_isr
   478  0070                     ??_isr:	; 0 bytes @ 0x0
   479                           	global	?_keyboard_scan
   480  0070                     ?_keyboard_scan:	; 1 bytes @ 0x0
   481  0070                     	ds	5
   482                           psect	cstackBANK0,class=BANK0,space=1
   483                           global __pcstackBANK0
   484  0020                     __pcstackBANK0:
   485                           	global	?_delay_ms
   486  0020                     ?_delay_ms:	; 0 bytes @ 0x0
   487                           	global	?___bmul
   488  0020                     ?___bmul:	; 1 bytes @ 0x0
   489                           	global	?___ftpack
   490  0020                     ?___ftpack:	; 3 bytes @ 0x0
   491                           	global	?___lmul
   492  0020                     ?___lmul:	; 4 bytes @ 0x0
   493                           	global	?___llmod
   494  0020                     ?___llmod:	; 4 bytes @ 0x0
   495                           	global	?___lldiv
   496  0020                     ?___lldiv:	; 4 bytes @ 0x0
   497                           	global	___bmul@multiplicand
   498  0020                     ___bmul@multiplicand:	; 1 bytes @ 0x0
   499                           	global	delay_ms@ms
   500  0020                     delay_ms@ms:	; 2 bytes @ 0x0
   501                           	global	___ftpack@arg
   502  0020                     ___ftpack@arg:	; 3 bytes @ 0x0
   503                           	global	___lmul@multiplier
   504  0020                     ___lmul@multiplier:	; 4 bytes @ 0x0
   505                           	global	___llmod@divisor
   506  0020                     ___llmod@divisor:	; 4 bytes @ 0x0
   507                           	global	___lldiv@divisor
   508  0020                     ___lldiv@divisor:	; 4 bytes @ 0x0
   509  0020                     	ds	1
   510                           	global	??___bmul
   511  0021                     ??___bmul:	; 0 bytes @ 0x1
   512  0021                     	ds	1
   513                           	global	??_delay_ms
   514  0022                     ??_delay_ms:	; 0 bytes @ 0x2
   515                           	global	___bmul@product
   516  0022                     ___bmul@product:	; 1 bytes @ 0x2
   517                           	global	delay_ms@i
   518  0022                     delay_ms@i:	; 2 bytes @ 0x2
   519  0022                     	ds	1
   520                           	global	___bmul@multiplier
   521  0023                     ___bmul@multiplier:	; 1 bytes @ 0x3
   522                           	global	___ftpack@exp
   523  0023                     ___ftpack@exp:	; 1 bytes @ 0x3
   524  0023                     	ds	1
   525                           	global	___ftpack@sign
   526  0024                     ___ftpack@sign:	; 1 bytes @ 0x4
   527                           	global	delay_ms@j
   528  0024                     delay_ms@j:	; 2 bytes @ 0x4
   529                           	global	___lmul@multiplicand
   530  0024                     ___lmul@multiplicand:	; 4 bytes @ 0x4
   531                           	global	___llmod@dividend
   532  0024                     ___llmod@dividend:	; 4 bytes @ 0x4
   533                           	global	___lldiv@dividend
   534  0024                     ___lldiv@dividend:	; 4 bytes @ 0x4
   535  0024                     	ds	1
   536                           	global	??___ftpack
   537  0025                     ??___ftpack:	; 0 bytes @ 0x5
   538  0025                     	ds	1
   539                           	global	??_lcd_data
   540  0026                     ??_lcd_data:	; 0 bytes @ 0x6
   541                           	global	??_keyboard_scan
   542  0026                     ??_keyboard_scan:	; 0 bytes @ 0x6
   543                           	global	??_lcd_command
   544  0026                     ??_lcd_command:	; 0 bytes @ 0x6
   545  0026                     	ds	1
   546                           	global	lcd_command@cmd
   547  0027                     lcd_command@cmd:	; 1 bytes @ 0x7
   548                           	global	lcd_data@data
   549  0027                     lcd_data@data:	; 1 bytes @ 0x7
   550  0027                     	ds	1
   551                           	global	??_lcd_init
   552  0028                     ??_lcd_init:	; 0 bytes @ 0x8
   553                           	global	??_lcd_clear
   554  0028                     ??_lcd_clear:	; 0 bytes @ 0x8
   555                           	global	?_lcd_puts
   556  0028                     ?_lcd_puts:	; 0 bytes @ 0x8
   557                           	global	??_lcd_putc
   558  0028                     ??_lcd_putc:	; 0 bytes @ 0x8
   559                           	global	??___lmul
   560  0028                     ??___lmul:	; 0 bytes @ 0x8
   561                           	global	??___llmod
   562  0028                     ??___llmod:	; 0 bytes @ 0x8
   563                           	global	??___lldiv
   564  0028                     ??___lldiv:	; 0 bytes @ 0x8
   565                           	global	?___fttol
   566  0028                     ?___fttol:	; 4 bytes @ 0x8
   567                           	global	lcd_putc@c
   568  0028                     lcd_putc@c:	; 1 bytes @ 0x8
   569                           	global	lcd_puts@str
   570  0028                     lcd_puts@str:	; 2 bytes @ 0x8
   571                           	global	___fttol@f1
   572  0028                     ___fttol@f1:	; 3 bytes @ 0x8
   573                           	global	keyboard_scan@row_pins
   574  0028                     keyboard_scan@row_pins:	; 4 bytes @ 0x8
   575  0028                     	ds	1
   576                           	global	___llmod@counter
   577  0029                     ___llmod@counter:	; 1 bytes @ 0x9
   578                           	global	___lmul@product
   579  0029                     ___lmul@product:	; 4 bytes @ 0x9
   580                           	global	___lldiv@quotient
   581  0029                     ___lldiv@quotient:	; 4 bytes @ 0x9
   582  0029                     	ds	1
   583                           	global	??_lcd_puts
   584  002A                     ??_lcd_puts:	; 0 bytes @ 0xA
   585  002A                     	ds	2
   586                           	global	??___fttol
   587  002C                     ??___fttol:	; 0 bytes @ 0xC
   588                           	global	keyboard_scan@result
   589  002C                     keyboard_scan@result:	; 1 bytes @ 0xC
   590  002C                     	ds	1
   591                           	global	keyboard_scan@col
   592  002D                     keyboard_scan@col:	; 1 bytes @ 0xD
   593                           	global	___lldiv@counter
   594  002D                     ___lldiv@counter:	; 1 bytes @ 0xD
   595  002D                     	ds	1
   596                           	global	keyboard_scan@col_val
   597  002E                     keyboard_scan@col_val:	; 1 bytes @ 0xE
   598  002E                     	ds	1
   599                           	global	keyboard_scan@row
   600  002F                     keyboard_scan@row:	; 1 bytes @ 0xF
   601  002F                     	ds	1
   602                           	global	___fttol@sign1
   603  0030                     ___fttol@sign1:	; 1 bytes @ 0x10
   604  0030                     	ds	1
   605                           	global	___fttol@lval
   606  0031                     ___fttol@lval:	; 4 bytes @ 0x11
   607  0031                     	ds	4
   608                           	global	___fttol@exp1
   609  0035                     ___fttol@exp1:	; 1 bytes @ 0x15
   610  0035                     	ds	1
   611                           	global	?___ftdiv
   612  0036                     ?___ftdiv:	; 3 bytes @ 0x16
   613                           	global	?___ftneg
   614  0036                     ?___ftneg:	; 3 bytes @ 0x16
   615                           	global	___ftdiv@f2
   616  0036                     ___ftdiv@f2:	; 3 bytes @ 0x16
   617                           	global	___ftneg@f1
   618  0036                     ___ftneg@f1:	; 3 bytes @ 0x16
   619  0036                     	ds	3
   620                           	global	??___ftneg
   621  0039                     ??___ftneg:	; 0 bytes @ 0x19
   622                           	global	?___lltoft
   623  0039                     ?___lltoft:	; 3 bytes @ 0x19
   624                           	global	___ftdiv@f1
   625  0039                     ___ftdiv@f1:	; 3 bytes @ 0x19
   626                           	global	___lltoft@c
   627  0039                     ___lltoft@c:	; 4 bytes @ 0x19
   628  0039                     	ds	3
   629                           	global	??___ftdiv
   630  003C                     ??___ftdiv:	; 0 bytes @ 0x1C
   631  003C                     	ds	1
   632                           	global	??___lltoft
   633  003D                     ??___lltoft:	; 0 bytes @ 0x1D
   634  003D                     	ds	1
   635                           	global	___lltoft@exp
   636  003E                     ___lltoft@exp:	; 1 bytes @ 0x1E
   637  003E                     	ds	1
   638                           	global	?___ftmul
   639  003F                     ?___ftmul:	; 3 bytes @ 0x1F
   640                           	global	___ftmul@f1
   641  003F                     ___ftmul@f1:	; 3 bytes @ 0x1F
   642  003F                     	ds	1
   643                           	global	___ftdiv@cntr
   644  0040                     ___ftdiv@cntr:	; 1 bytes @ 0x20
   645  0040                     	ds	1
   646                           	global	___ftdiv@f3
   647  0041                     ___ftdiv@f3:	; 3 bytes @ 0x21
   648  0041                     	ds	1
   649                           	global	___ftmul@f2
   650  0042                     ___ftmul@f2:	; 3 bytes @ 0x22
   651  0042                     	ds	2
   652                           	global	___ftdiv@exp
   653  0044                     ___ftdiv@exp:	; 1 bytes @ 0x24
   654  0044                     	ds	1
   655                           	global	??___ftmul
   656  0045                     ??___ftmul:	; 0 bytes @ 0x25
   657                           	global	___ftdiv@sign
   658  0045                     ___ftdiv@sign:	; 1 bytes @ 0x25
   659  0045                     	ds	1
   660                           	global	?_set_pwm_frequency
   661  0046                     ?_set_pwm_frequency:	; 0 bytes @ 0x26
   662                           	global	set_pwm_frequency@freq
   663  0046                     set_pwm_frequency@freq:	; 3 bytes @ 0x26
   664  0046                     	ds	3
   665                           	global	??_set_pwm_frequency
   666  0049                     ??_set_pwm_frequency:	; 0 bytes @ 0x29
   667                           	global	___ftmul@exp
   668  0049                     ___ftmul@exp:	; 1 bytes @ 0x29
   669                           	global	set_pwm_frequency@period
   670  0049                     set_pwm_frequency@period:	; 3 bytes @ 0x29
   671  0049                     	ds	1
   672                           	global	___ftmul@f3_as_product
   673  004A                     ___ftmul@f3_as_product:	; 3 bytes @ 0x2A
   674  004A                     	ds	2
   675                           	global	set_pwm_frequency@half_period
   676  004C                     set_pwm_frequency@half_period:	; 3 bytes @ 0x2C
   677  004C                     	ds	1
   678                           	global	___ftmul@cntr
   679  004D                     ___ftmul@cntr:	; 1 bytes @ 0x2D
   680  004D                     	ds	1
   681                           	global	___ftmul@sign
   682  004E                     ___ftmul@sign:	; 1 bytes @ 0x2E
   683  004E                     	ds	1
   684                           	global	?___ftadd
   685  004F                     ?___ftadd:	; 3 bytes @ 0x2F
   686                           	global	set_pwm_frequency@interrupt_interval
   687  004F                     set_pwm_frequency@interrupt_interval:	; 3 bytes @ 0x2F
   688                           	global	___ftadd@f1
   689  004F                     ___ftadd@f1:	; 3 bytes @ 0x2F
   690  004F                     	ds	3
   691                           	global	___ftadd@f2
   692  0052                     ___ftadd@f2:	; 3 bytes @ 0x32
   693  0052                     	ds	3
   694                           	global	??___ftadd
   695  0055                     ??___ftadd:	; 0 bytes @ 0x35
   696  0055                     	ds	4
   697                           	global	___ftadd@sign
   698  0059                     ___ftadd@sign:	; 1 bytes @ 0x39
   699  0059                     	ds	1
   700                           	global	___ftadd@exp2
   701  005A                     ___ftadd@exp2:	; 1 bytes @ 0x3A
   702  005A                     	ds	1
   703                           	global	___ftadd@exp1
   704  005B                     ___ftadd@exp1:	; 1 bytes @ 0x3B
   705  005B                     	ds	1
   706                           	global	?_lcd_putnumf
   707  005C                     ?_lcd_putnumf:	; 0 bytes @ 0x3C
   708                           	global	lcd_putnumf@num
   709  005C                     lcd_putnumf@num:	; 3 bytes @ 0x3C
   710  005C                     	ds	3
   711                           	global	lcd_putnumf@decimal_places
   712  005F                     lcd_putnumf@decimal_places:	; 1 bytes @ 0x3F
   713  005F                     	ds	1
   714                           	global	??_lcd_putnumf
   715  0060                     ??_lcd_putnumf:	; 0 bytes @ 0x40
   716  0060                     	ds	1
   717                           	global	??_main
   718  0061                     ??_main:	; 0 bytes @ 0x41
   719  0061                     	ds	4
   720 ;;Data sizes: Strings 25, constant 0, data 39, bss 11, persistent 0 stack 0
   721 ;;Auto spaces:   Size  Autos    Used
   722 ;; COMMON          14      5      10
   723 ;; BANK0           80     69      77
   724 ;; BANK1           80     58      79
   725 ;; BANK3           96      0      16
   726 ;; BANK2           96      0       0
   727                           
   728 ;;
   729 ;; Pointer list with targets:
   730                           
   731 ;; ?___ftpack	float  size(1) Largest target is 0
   732 ;;
   733 ;; ?___ftmul	float  size(1) Largest target is 0
   734 ;;
   735 ;; ?___lmul	unsigned long  size(1) Largest target is 0
   736 ;;
   737 ;; ?___ftadd	float  size(1) Largest target is 0
   738 ;;
   739 ;; ?___ftneg	float  size(1) Largest target is 0
   740 ;;
   741 ;; ?___lltoft	float  size(1) Largest target is 0
   742 ;;
   743 ;; ?___lldiv	unsigned long  size(1) Largest target is 0
   744 ;;
   745 ;; ?___llmod	unsigned long  size(1) Largest target is 0
   746 ;;
   747 ;; ?___fttol	long  size(1) Largest target is 0
   748 ;;
   749 ;; ?___ftdiv	float  size(1) Largest target is 0
   750 ;;
   751 ;; lcd_puts@str	PTR const unsigned char  size(2) Largest target is 16
   752 ;;		 -> lcd_putnumf@buffer(BANK1[16]), STR_7(CODE[3]), STR_6(CODE[8]), STR_5(CODE[6]), 
   753 ;;		 -> STR_4(CODE[3]), STR_3(CODE[8]), STR_2(CODE[8]), STR_1(CODE[6]), 
   754 ;;
   755                           
   756                           
   757 ;;
   758 ;; Critical Paths under _main in COMMON
   759 ;;
   760 ;;   None.
   761 ;;
   762 ;; Critical Paths under _isr in COMMON
   763 ;;
   764 ;;   None.
   765 ;;
   766 ;; Critical Paths under _main in BANK0
   767 ;;
   768 ;;   _main->_lcd_putnumf
   769 ;;   _lcd_putnumf->___ftadd
   770 ;;   _lcd_puts->_lcd_data
   771 ;;   _lcd_clear->_lcd_command
   772 ;;   _set_pwm_frequency->___ftdiv
   773 ;;   _lcd_init->_lcd_command
   774 ;;   _lcd_putc->_lcd_data
   775 ;;   ___lltoft->___ftneg
   776 ;;   ___ftmul->___lltoft
   777 ;;   ___ftdiv->___fttol
   778 ;;   ___ftadd->___ftmul
   779 ;;   _lcd_command->_delay_ms
   780 ;;   _keyboard_scan->_delay_ms
   781 ;;   _lcd_data->_delay_ms
   782 ;;   ___ftneg->___fttol
   783 ;;   ___fttol->___ftpack
   784 ;;
   785 ;; Critical Paths under _isr in BANK0
   786 ;;
   787 ;;   None.
   788 ;;
   789 ;; Critical Paths under _main in BANK1
   790 ;;
   791 ;;   _main->_lcd_putnumf
   792 ;;
   793 ;; Critical Paths under _isr in BANK1
   794 ;;
   795 ;;   None.
   796 ;;
   797 ;; Critical Paths under _main in BANK3
   798 ;;
   799 ;;   None.
   800 ;;
   801 ;; Critical Paths under _isr in BANK3
   802 ;;
   803 ;;   None.
   804 ;;
   805 ;; Critical Paths under _main in BANK2
   806 ;;
   807 ;;   None.
   808 ;;
   809 ;; Critical Paths under _isr in BANK2
   810 ;;
   811 ;;   None.
   812                           
   813 ;;
   814 ;;Main: autosize = 0, tempsize = 4, incstack = 0, save=0
   815 ;;
   816                           
   817 ;;
   818 ;;Call Graph Tables:
   819 ;;
   820 ;; ---------------------------------------------------------------------------------
   821 ;; (Depth) Function   	        Calls       Base Space   Used Autos Params    Refs
   822 ;; ---------------------------------------------------------------------------------
   823 ;; (0) _main                                                26    26      0    9348
   824 ;;                                             65 BANK0      4     4      0
   825 ;;                                             36 BANK1     22    22      0
   826 ;;                           _lcd_init
   827 ;;                  _set_pwm_frequency
   828 ;;                          _lcd_clear
   829 ;;                           _lcd_puts
   830 ;;                        _lcd_putnumf
   831 ;;                      _keyboard_scan
   832 ;;                             ___bmul
   833 ;;                           _lcd_putc
   834 ;; ---------------------------------------------------------------------------------
   835 ;; (1) _lcd_putnumf                                         41    37      4    5449
   836 ;;                                             60 BANK0      5     1      4
   837 ;;                                              0 BANK1     36    36      0
   838 ;;                            ___fttol
   839 ;;                            ___llmod
   840 ;;                            ___lldiv
   841 ;;                           ___lltoft
   842 ;;                            ___ftneg
   843 ;;                            ___ftadd
   844 ;;                             ___lmul
   845 ;;                            ___ftmul
   846 ;;                           _lcd_puts
   847 ;; ---------------------------------------------------------------------------------
   848 ;; (2) _lcd_puts                                             2     0      2     449
   849 ;;                                              8 BANK0      2     0      2
   850 ;;                           _lcd_data
   851 ;; ---------------------------------------------------------------------------------
   852 ;; (1) _lcd_clear                                            0     0      0     520
   853 ;;                        _lcd_command
   854 ;;                           _delay_ms
   855 ;; ---------------------------------------------------------------------------------
   856 ;; (1) _set_pwm_frequency                                   12     9      3    1148
   857 ;;                                             38 BANK0     12     9      3
   858 ;;                            ___ftdiv
   859 ;;                            ___fttol
   860 ;; ---------------------------------------------------------------------------------
   861 ;; (1) _lcd_init                                             0     0      0     520
   862 ;;                           _delay_ms
   863 ;;                        _lcd_command
   864 ;; ---------------------------------------------------------------------------------
   865 ;; (1) _lcd_putc                                             1     1      0     415
   866 ;;                                              8 BANK0      1     1      0
   867 ;;                           _lcd_data
   868 ;; ---------------------------------------------------------------------------------
   869 ;; (2) ___lltoft                                             6     2      4     414
   870 ;;                                             25 BANK0      6     2      4
   871 ;;                           ___ftpack
   872 ;;                            ___fttol (ARG)
   873 ;;                            ___ftneg (ARG)
   874 ;; ---------------------------------------------------------------------------------
   875 ;; (2) ___ftmul                                             16    10      6     800
   876 ;;                                             31 BANK0     16    10      6
   877 ;;                           ___ftpack
   878 ;;                           ___lltoft (ARG)
   879 ;;                            ___fttol (ARG)
   880 ;; ---------------------------------------------------------------------------------
   881 ;; (2) ___ftdiv                                             16    10      6     732
   882 ;;                                             22 BANK0     16    10      6
   883 ;;                           ___ftpack
   884 ;;                            ___fttol (ARG)
   885 ;; ---------------------------------------------------------------------------------
   886 ;; (2) ___ftadd                                             13     7      6    1537
   887 ;;                                             47 BANK0     13     7      6
   888 ;;                           ___ftpack
   889 ;;                            ___ftneg (ARG)
   890 ;;                           ___lltoft (ARG)
   891 ;;                            ___fttol (ARG)
   892 ;;                            ___ftmul (ARG)
   893 ;; ---------------------------------------------------------------------------------
   894 ;; (2) _lcd_command                                          2     2      0     384
   895 ;;                                              6 BANK0      2     2      0
   896 ;;                           _delay_ms
   897 ;; ---------------------------------------------------------------------------------
   898 ;; (1) _keyboard_scan                                       10    10      0     516
   899 ;;                                              6 BANK0     10    10      0
   900 ;;                           _delay_ms
   901 ;; ---------------------------------------------------------------------------------
   902 ;; (2) _lcd_data                                             2     2      0     384
   903 ;;                                              6 BANK0      2     2      0
   904 ;;                           _delay_ms
   905 ;; ---------------------------------------------------------------------------------
   906 ;; (2) ___lldiv                                             14     6      8     241
   907 ;;                                              0 BANK0     14     6      8
   908 ;; ---------------------------------------------------------------------------------
   909 ;; (2) ___ftneg                                              3     0      3      65
   910 ;;                                             22 BANK0      3     0      3
   911 ;;                           ___ftpack (ARG)
   912 ;;                            ___fttol (ARG)
   913 ;; ---------------------------------------------------------------------------------
   914 ;; (2) ___llmod                                             10     2      8     232
   915 ;;                                              0 BANK0     10     2      8
   916 ;; ---------------------------------------------------------------------------------
   917 ;; (2) ___fttol                                             14    10      4     252
   918 ;;                                              8 BANK0     14    10      4
   919 ;;                           ___ftpack (ARG)
   920 ;; ---------------------------------------------------------------------------------
   921 ;; (2) ___lmul                                              13     5      8     136
   922 ;;                                              0 BANK0     13     5      8
   923 ;; ---------------------------------------------------------------------------------
   924 ;; (3) ___ftpack                                             8     3      5     312
   925 ;;                                              0 BANK0      8     3      5
   926 ;; ---------------------------------------------------------------------------------
   927 ;; (1) ___bmul                                               4     3      1      68
   928 ;;                                              0 BANK0      4     3      1
   929 ;; ---------------------------------------------------------------------------------
   930 ;; (3) _delay_ms                                             6     4      2     136
   931 ;;                                              0 BANK0      6     4      2
   932 ;; ---------------------------------------------------------------------------------
   933 ;; Estimated maximum stack depth 3
   934 ;; ---------------------------------------------------------------------------------
   935 ;; (Depth) Function   	        Calls       Base Space   Used Autos Params    Refs
   936 ;; ---------------------------------------------------------------------------------
   937 ;; (5) _isr                                                  5     5      0       0
   938 ;;                                              0 COMMON     5     5      0
   939 ;; ---------------------------------------------------------------------------------
   940 ;; Estimated maximum stack depth 5
   941 ;; ---------------------------------------------------------------------------------
   942                           
   943 ;; Call Graph Graphs:
   944                           
   945 ;; _main (ROOT)
   946 ;;   _lcd_init
   947 ;;     _delay_ms
   948 ;;     _lcd_command
   949 ;;       _delay_ms
   950 ;;   _set_pwm_frequency
   951 ;;     ___ftdiv
   952 ;;       ___ftpack
   953 ;;       ___fttol (ARG)
   954 ;;         ___ftpack (ARG)
   955 ;;     ___fttol
   956 ;;       ___ftpack (ARG)
   957 ;;   _lcd_clear
   958 ;;     _lcd_command
   959 ;;       _delay_ms
   960 ;;     _delay_ms
   961 ;;   _lcd_puts
   962 ;;     _lcd_data
   963 ;;       _delay_ms
   964 ;;   _lcd_putnumf
   965 ;;     ___fttol
   966 ;;       ___ftpack (ARG)
   967 ;;     ___llmod
   968 ;;     ___lldiv
   969 ;;     ___lltoft
   970 ;;       ___ftpack
   971 ;;       ___fttol (ARG)
   972 ;;         ___ftpack (ARG)
   973 ;;       ___ftneg (ARG)
   974 ;;         ___ftpack (ARG)
   975 ;;         ___fttol (ARG)
   976 ;;           ___ftpack (ARG)
   977 ;;     ___ftneg
   978 ;;       ___ftpack (ARG)
   979 ;;       ___fttol (ARG)
   980 ;;         ___ftpack (ARG)
   981 ;;     ___ftadd
   982 ;;       ___ftpack
   983 ;;       ___ftneg (ARG)
   984 ;;         ___ftpack (ARG)
   985 ;;         ___fttol (ARG)
   986 ;;           ___ftpack (ARG)
   987 ;;       ___lltoft (ARG)
   988 ;;         ___ftpack
   989 ;;         ___fttol (ARG)
   990 ;;           ___ftpack (ARG)
   991 ;;         ___ftneg (ARG)
   992 ;;           ___ftpack (ARG)
   993 ;;           ___fttol (ARG)
   994 ;;             ___ftpack (ARG)
   995 ;;       ___fttol (ARG)
   996 ;;         ___ftpack (ARG)
   997 ;;       ___ftmul (ARG)
   998 ;;         ___ftpack
   999 ;;         ___lltoft (ARG)
  1000 ;;           ___ftpack
  1001 ;;           ___fttol (ARG)
  1002 ;;             ___ftpack (ARG)
  1003 ;;           ___ftneg (ARG)
  1004 ;;             ___ftpack (ARG)
  1005 ;;             ___fttol (ARG)
  1006 ;;               ___ftpack (ARG)
  1007 ;;         ___fttol (ARG)
  1008 ;;           ___ftpack (ARG)
  1009 ;;     ___lmul
  1010 ;;     ___ftmul
  1011 ;;       ___ftpack
  1012 ;;       ___lltoft (ARG)
  1013 ;;         ___ftpack
  1014 ;;         ___fttol (ARG)
  1015 ;;           ___ftpack (ARG)
  1016 ;;         ___ftneg (ARG)
  1017 ;;           ___ftpack (ARG)
  1018 ;;           ___fttol (ARG)
  1019 ;;             ___ftpack (ARG)
  1020 ;;       ___fttol (ARG)
  1021 ;;         ___ftpack (ARG)
  1022 ;;     _lcd_puts
  1023 ;;       _lcd_data
  1024 ;;         _delay_ms
  1025 ;;   _keyboard_scan
  1026 ;;     _delay_ms
  1027 ;;   ___bmul
  1028 ;;   _lcd_putc
  1029 ;;     _lcd_data
  1030 ;;       _delay_ms
  1031 ;;
  1032 ;; _isr (ROOT)
  1033 ;;
  1034                           
  1035 ;; Address spaces:
  1036                           
  1037 ;;Name               Size   Autos  Total    Cost      Usage
  1038 ;;BANK3               60      0      10       9       16.7%
  1039 ;;BITBANK3            60      0       0       8        0.0%
  1040 ;;SFR3                 0      0       0       4        0.0%
  1041 ;;BITSFR3              0      0       0       4        0.0%
  1042 ;;BANK2               60      0       0      11        0.0%
  1043 ;;BITBANK2            60      0       0      10        0.0%
  1044 ;;SFR2                 0      0       0       5        0.0%
  1045 ;;BITSFR2              0      0       0       5        0.0%
  1046 ;;SFR1                 0      0       0       2        0.0%
  1047 ;;BITSFR1              0      0       0       2        0.0%
  1048 ;;BANK1               50     3A      4F       7       98.8%
  1049 ;;BITBANK1            50      0       0       6        0.0%
  1050 ;;CODE                 0      0       0       0        0.0%
  1051 ;;DATA                 0      0      BA      12        0.0%
  1052 ;;ABS                  0      0      B6       3        0.0%
  1053 ;;NULL                 0      0       0       0        0.0%
  1054 ;;STACK                0      0       4       2        0.0%
  1055 ;;BANK0               50     45      4D       5       96.3%
  1056 ;;BITBANK0            50      0       0       4        0.0%
  1057 ;;SFR0                 0      0       0       1        0.0%
  1058 ;;BITSFR0              0      0       0       1        0.0%
  1059 ;;COMMON               E      5       A       1       71.4%
  1060 ;;BITCOMMON            E      0       0       0        0.0%
  1061 ;;EEDATA             100      0       0       0        0.0%
  1062                           
  1063                           	global	_main
  1064                           psect	maintext,global,class=CODE,delta=2
  1065                           global __pmaintext
  1066  02F6                     __pmaintext:
  1067                           
  1068 ;; *************** function _main *****************
  1069 ;; Defined at:
  1070 ;;		line 52 in file "C:\Users\may\OneDrive\WeiJi\Mplab_workspace\work_together1\Untitled.c"
  1071 ;; Parameters:    Size  Location     Type
  1072 ;;		None
  1073 ;; Auto vars:     Size  Location     Type
  1074 ;;  map_index       2   54[BANK1 ] int 
  1075 ;;  frequency_ma   18   36[BANK1 ] float [6]
  1076 ;;  key_char        1   57[BANK1 ] unsigned char 
  1077 ;;  key_index       1   56[BANK1 ] unsigned char 
  1078 ;; Return value:  Size  Location     Type
  1079 ;;		None               void
  1080 ;; Registers used:
  1081 ;;		wreg, fsr0l, fsr0h, status,2, status,0, btemp+1, pclath, cstack
  1082 ;; Tracked objects:
  1083 ;;		On entry : 17F/0
  1084 ;;		On exit  : 0/0
  1085 ;;		Unchanged: 0/0
  1086 ;; Data sizes:     COMMON   BANK0   BANK1   BANK3   BANK2
  1087 ;;      Params:         0       0       0       0       0
  1088 ;;      Locals:         0       0      22       0       0
  1089 ;;      Temps:          0       4       0       0       0
  1090 ;;      Totals:         0       4      22       0       0
  1091 ;;Total ram usage:       26 bytes
  1092 ;; Hardware stack levels required when called:    5
  1093 ;; This function calls:
  1094 ;;		_lcd_init
  1095 ;;		_set_pwm_frequency
  1096 ;;		_lcd_clear
  1097 ;;		_lcd_puts
  1098 ;;		_lcd_putnumf
  1099 ;;		_keyboard_scan
  1100 ;;		___bmul
  1101 ;;		_lcd_putc
  1102 ;; This function is called by:
  1103 ;;		Startup code after reset
  1104 ;; This function uses a non-reentrant model
  1105 ;;
  1106                           psect	maintext
  1107                           	file	"C:\Users\may\OneDrive\WeiJi\Mplab_workspace\work_together1\Untitled.c"
  1108                           	line	52
  1109                           	global	__size_of_main
  1110  0147                     	__size_of_main	equ	__end_of_main-_main
  1111                           	
  1112  02F6                     _main:	
  1113                           	opt	stack 3
  1114                           ; Regs used in _main: [wreg-fsr0h+status,2+status,0+btemp+1+pclath+cstack]
  1115                           	line	54
  1116                           	
  1117  02F6                     l4544:	
  1118                           ;Untitled.c: 54: TRISD = 0x00;
  1119  02F6  1683               	bsf	status, 5	;RP0=1, select bank1
  1120  02F7  1303               	bcf	status, 6	;RP1=0, select bank1
  1121  02F8  0188               	clrf	(136)^080h	;volatile
  1122                           	line	55
  1123                           ;Untitled.c: 55: TRISE = 0x00;
  1124  02F9  0189               	clrf	(137)^080h	;volatile
  1125                           	line	56
  1126                           	
  1127  02FA                     l4546:	
  1128                           ;Untitled.c: 56: TRISB = 0x0F;
  1129  02FA  300F               	movlw	(0Fh)
  1130  02FB  0086               	movwf	(134)^080h	;volatile
  1131                           	line	59
  1132                           ;Untitled.c: 59: TRISD = TRISD & 0xF7;
  1133  02FC  0808               	movf	(136)^080h,w
  1134  02FD  39F7               	andlw	0F7h
  1135  02FE  0088               	movwf	(136)^080h	;volatile
  1136                           	line	61
  1137                           	
  1138  02FF                     l4548:	
  1139                           ;Untitled.c: 61: lcd_init();
  1140  02FF  120A  158A  2360   	fcall	_lcd_init
              120A  118A         
  1141                           	line	64
  1142                           	
  1143  0304                     l4550:	
  1144                           ;Untitled.c: 64: OPTION_REG = 0x07;
  1145  0304  3007               	movlw	(07h)
  1146  0305  1683               	bsf	status, 5	;RP0=1, select bank1
  1147  0306  1303               	bcf	status, 6	;RP1=0, select bank1
  1148  0307  0081               	movwf	(129)^080h	;volatile
  1149                           	line	65
  1150                           	
  1151  0308                     l4552:	
  1152                           ;Untitled.c: 65: TMR0IE = 1;
  1153  0308  168B               	bsf	(93/8),(93)&7
  1154                           	line	66
  1155                           	
  1156  0309                     l4554:	
  1157                           ;Untitled.c: 66: GIE = 1;
  1158  0309  178B               	bsf	(95/8),(95)&7
  1159                           	line	67
  1160                           	
  1161  030A                     l4556:	
  1162                           ;Untitled.c: 67: PEIE = 1;
  1163  030A  170B               	bsf	(94/8),(94)&7
  1164                           	line	70
  1165                           	
  1166  030B                     l4558:	
  1167                           ;Untitled.c: 70: current_frequency = 1000;
  1168  030B  3000               	movlw	0x0
  1169  030C  00EC               	movwf	(_current_frequency)^080h
  1170  030D  307A               	movlw	0x7a
  1171  030E  00ED               	movwf	(_current_frequency+1)^080h
  1172  030F  3044               	movlw	0x44
  1173  0310  00EE               	movwf	(_current_frequency+2)^080h
  1174                           	line	71
  1175                           	
  1176  0311                     l4560:	
  1177                           ;Untitled.c: 71: set_pwm_frequency(current_frequency);
  1178  0311  086C               	movf	(_current_frequency)^080h,w
  1179  0312  1283               	bcf	status, 5	;RP0=0, select bank0
  1180  0313  1303               	bcf	status, 6	;RP1=0, select bank0
  1181  0314  00C6               	movwf	(?_set_pwm_frequency)
  1182  0315  1683               	bsf	status, 5	;RP0=1, select bank1
  1183  0316  1303               	bcf	status, 6	;RP1=0, select bank1
  1184  0317  086D               	movf	(_current_frequency+1)^080h,w
  1185  0318  1283               	bcf	status, 5	;RP0=0, select bank0
  1186  0319  1303               	bcf	status, 6	;RP1=0, select bank0
  1187  031A  00C7               	movwf	(?_set_pwm_frequency+1)
  1188  031B  1683               	bsf	status, 5	;RP0=1, select bank1
  1189  031C  1303               	bcf	status, 6	;RP1=0, select bank1
  1190  031D  086E               	movf	(_current_frequency+2)^080h,w
  1191  031E  1283               	bcf	status, 5	;RP0=0, select bank0
  1192  031F  1303               	bcf	status, 6	;RP1=0, select bank0
  1193  0320  00C8               	movwf	(?_set_pwm_frequency+2)
  1194  0321  120A  158A  256C   	fcall	_set_pwm_frequency
              120A  118A         
  1195                           	line	74
  1196                           	
  1197  0326                     l4562:	
  1198                           ;Untitled.c: 74: lcd_clear();
  1199  0326  120A  158A  22C9   	fcall	_lcd_clear
              120A  118A         
  1200                           	line	75
  1201                           	
  1202  032B                     l4564:	
  1203                           ;Untitled.c: 75: lcd_puts("Key: ");
  1204  032B  3011               	movlw	low((STR_1-__stringbase))
  1205  032C  1283               	bcf	status, 5	;RP0=0, select bank0
  1206  032D  1303               	bcf	status, 6	;RP1=0, select bank0
  1207  032E  00A8               	movwf	(?_lcd_puts)
  1208  032F  3080               	movlw	80h
  1209  0330  00A9               	movwf	(?_lcd_puts+1)
  1210  0331  120A  158A  2300   	fcall	_lcd_puts
              120A  118A         
  1211                           	line	76
  1212                           	
  1213  0336                     l4566:	
  1214                           ;Untitled.c: 76: lcd_puts("Initial");
  1215  0336  3009               	movlw	low((STR_2-__stringbase))
  1216  0337  1283               	bcf	status, 5	;RP0=0, select bank0
  1217  0338  1303               	bcf	status, 6	;RP1=0, select bank0
  1218  0339  00A8               	movwf	(?_lcd_puts)
  1219  033A  3080               	movlw	80h
  1220  033B  00A9               	movwf	(?_lcd_puts+1)
  1221  033C  120A  158A  2300   	fcall	_lcd_puts
              120A  118A         
  1222                           	line	77
  1223                           	
  1224  0341                     l4568:	
  1225                           ;Untitled.c: 77: lcd_puts(" Freq: ");
  1226  0341  3001               	movlw	low((STR_3-__stringbase))
  1227  0342  1283               	bcf	status, 5	;RP0=0, select bank0
  1228  0343  1303               	bcf	status, 6	;RP1=0, select bank0
  1229  0344  00A8               	movwf	(?_lcd_puts)
  1230  0345  3080               	movlw	80h
  1231  0346  00A9               	movwf	(?_lcd_puts+1)
  1232  0347  120A  158A  2300   	fcall	_lcd_puts
              120A  118A         
  1233                           	line	78
  1234                           	
  1235  034C                     l4570:	
  1236                           ;Untitled.c: 78: lcd_putnumf(current_frequency, 1);
  1237  034C  1683               	bsf	status, 5	;RP0=1, select bank1
  1238  034D  1303               	bcf	status, 6	;RP1=0, select bank1
  1239  034E  086C               	movf	(_current_frequency)^080h,w
  1240  034F  1283               	bcf	status, 5	;RP0=0, select bank0
  1241  0350  1303               	bcf	status, 6	;RP1=0, select bank0
  1242  0351  00DC               	movwf	(?_lcd_putnumf)
  1243  0352  1683               	bsf	status, 5	;RP0=1, select bank1
  1244  0353  1303               	bcf	status, 6	;RP1=0, select bank1
  1245  0354  086D               	movf	(_current_frequency+1)^080h,w
  1246  0355  1283               	bcf	status, 5	;RP0=0, select bank0
  1247  0356  1303               	bcf	status, 6	;RP1=0, select bank0
  1248  0357  00DD               	movwf	(?_lcd_putnumf+1)
  1249  0358  1683               	bsf	status, 5	;RP0=1, select bank1
  1250  0359  1303               	bcf	status, 6	;RP1=0, select bank1
  1251  035A  086E               	movf	(_current_frequency+2)^080h,w
  1252  035B  1283               	bcf	status, 5	;RP0=0, select bank0
  1253  035C  1303               	bcf	status, 6	;RP1=0, select bank0
  1254  035D  00DE               	movwf	(?_lcd_putnumf+2)
  1255  035E  01DF               	clrf	0+(?_lcd_putnumf)+03h
  1256  035F  1403               	bsf	status,0
  1257  0360  0DDF               	rlf	0+(?_lcd_putnumf)+03h,f
  1258  0361  120A  118A  2015   	fcall	_lcd_putnumf
              120A  118A         
  1259                           	line	79
  1260                           	
  1261  0366                     l4572:	
  1262                           ;Untitled.c: 79: lcd_puts("Hz");
  1263  0366  3017               	movlw	low((STR_4-__stringbase))
  1264  0367  1283               	bcf	status, 5	;RP0=0, select bank0
  1265  0368  1303               	bcf	status, 6	;RP1=0, select bank0
  1266  0369  00A8               	movwf	(?_lcd_puts)
  1267  036A  3080               	movlw	80h
  1268  036B  00A9               	movwf	(?_lcd_puts+1)
  1269  036C  120A  158A  2300   	fcall	_lcd_puts
              120A  118A         
  1270  0371  2B72               	goto	l4574
  1271                           	line	81
  1272                           ;Untitled.c: 81: while (1) {
  1273                           	
  1274  0372                     l714:	
  1275                           	line	82
  1276                           	
  1277  0372                     l4574:	
  1278                           ;Untitled.c: 82: unsigned char key_index = keyboard_scan();
  1279  0372  120A  158A  265E   	fcall	_keyboard_scan
              120A  118A         
  1280  0377  1283               	bcf	status, 5	;RP0=0, select bank0
  1281  0378  1303               	bcf	status, 6	;RP1=0, select bank0
  1282  0379  00E1               	movwf	(??_main+0)+0
  1283  037A  0861               	movf	(??_main+0)+0,w
  1284  037B  1683               	bsf	status, 5	;RP0=1, select bank1
  1285  037C  1303               	bcf	status, 6	;RP1=0, select bank1
  1286  037D  00D8               	movwf	(main@key_index)^080h
  1287                           	line	84
  1288                           	
  1289  037E                     l4576:	
  1290                           ;Untitled.c: 84: if (key_index != 0xFF) {
  1291  037E  0858               	movf	(main@key_index)^080h,w
  1292  037F  3AFF               	xorlw	0FFh
  1293  0380  1903               	skipnz
  1294  0381  2B83               	goto	u4691
  1295  0382  2B84               	goto	u4690
  1296  0383                     u4691:
  1297  0383  2B72               	goto	l4574
  1298  0384                     u4690:
  1299                           	line	85
  1300                           	
  1301  0384                     l4578:	
  1302                           ;Untitled.c: 85: char key_char = TABLE[key_index];
  1303  0384  0858               	movf	(main@key_index)^080h,w
  1304  0385  3E90               	addlw	_TABLE&0ffh
  1305  0386  0084               	movwf	fsr0
  1306  0387  1783               	bsf	status, 7	;select IRP bank3
  1307  0388  0800               	movf	indf,w
  1308  0389  1283               	bcf	status, 5	;RP0=0, select bank0
  1309  038A  1303               	bcf	status, 6	;RP1=0, select bank0
  1310  038B  00E1               	movwf	(??_main+0)+0
  1311  038C  0861               	movf	(??_main+0)+0,w
  1312  038D  1683               	bsf	status, 5	;RP0=1, select bank1
  1313  038E  1303               	bcf	status, 6	;RP1=0, select bank1
  1314  038F  00D9               	movwf	(main@key_char)^080h
  1315                           	line	86
  1316                           	
  1317  0390                     l4580:	
  1318                           ;Untitled.c: 86: float frequency_map[] = {0.1, 1, 10, 40, 100, 1000};
  1319  0390  30C4               	movlw	(main@frequency_map)&0ffh
  1320  0391  0084               	movwf	fsr0
  1321  0392  30DA               	movlw	low(main@F1117)
  1322  0393  1283               	bcf	status, 5	;RP0=0, select bank0
  1323  0394  1303               	bcf	status, 6	;RP1=0, select bank0
  1324  0395  00E1               	movwf	(??_main+0)+0
  1325  0396  0804               	movf	fsr0,w
  1326  0397  00E2               	movwf	((??_main+0)+0+1)
  1327  0398  3012               	movlw	18
  1328  0399  00E3               	movwf	((??_main+0)+0+2)
  1329  039A                     u4700:
  1330  039A  0861               	movf	(??_main+0)+0,w
  1331  039B  0084               	movwf	fsr0
  1332  039C  1383               	bcf	status, 7	;select IRP bank1
  1333                           	
  1334  039D  0800               	movf	indf,w
  1335  039E  00E4               	movwf	((??_main+0)+0+3)
  1336  039F  0AE1               	incf	(??_main+0)+0,f
  1337  03A0  0862               	movf	((??_main+0)+0+1),w
  1338  03A1  0084               	movwf	fsr0
  1339                           	
  1340  03A2  0864               	movf	((??_main+0)+0+3),w
  1341  03A3  0080               	movwf	indf
  1342  03A4  0AE2               	incf	((??_main+0)+0+1),f
  1343  03A5  0BE3               	decfsz	((??_main+0)+0+2),f
  1344  03A6  2B9A               	goto	u4700
  1345                           	line	88
  1346                           	
  1347  03A7                     l4582:	
  1348                           ;Untitled.c: 88: if (key_char >= '1' && key_char <= '6') {
  1349  03A7  3031               	movlw	(031h)
  1350  03A8  1683               	bsf	status, 5	;RP0=1, select bank1
  1351  03A9  1303               	bcf	status, 6	;RP1=0, select bank1
  1352  03AA  0259               	subwf	(main@key_char)^080h,w
  1353  03AB  1C03               	skipc
  1354  03AC  2BAE               	goto	u4711
  1355  03AD  2BAF               	goto	u4710
  1356  03AE                     u4711:
  1357  03AE  2B72               	goto	l4574
  1358  03AF                     u4710:
  1359                           	
  1360  03AF                     l4584:	
  1361  03AF  3037               	movlw	(037h)
  1362  03B0  0259               	subwf	(main@key_char)^080h,w
  1363  03B1  1803               	skipnc
  1364  03B2  2BB4               	goto	u4721
  1365  03B3  2BB5               	goto	u4720
  1366  03B4                     u4721:
  1367  03B4  2B72               	goto	l4574
  1368  03B5                     u4720:
  1369                           	line	89
  1370                           	
  1371  03B5                     l4586:	
  1372                           ;Untitled.c: 89: int map_index = key_char - '1';
  1373  03B5  0859               	movf	(main@key_char)^080h,w
  1374  03B6  3ECF               	addlw	low(0FFCFh)
  1375  03B7  00D6               	movwf	(main@map_index)^080h
  1376  03B8  30FF               	movlw	high(0FFCFh)
  1377  03B9  1803               	skipnc
  1378  03BA  3000               	movlw	(high(0FFCFh)+1)&0ffh
  1379  03BB  00D7               	movwf	((main@map_index)^080h)+1
  1380                           	line	90
  1381                           	
  1382  03BC                     l4588:	
  1383                           ;Untitled.c: 90: current_frequency = frequency_map[map_index];
  1384  03BC  3003               	movlw	(03h)
  1385  03BD  1283               	bcf	status, 5	;RP0=0, select bank0
  1386  03BE  1303               	bcf	status, 6	;RP1=0, select bank0
  1387  03BF  00E1               	movwf	(??_main+0)+0
  1388  03C0  0861               	movf	(??_main+0)+0,w
  1389  03C1  00A0               	movwf	(?___bmul)
  1390  03C2  1683               	bsf	status, 5	;RP0=1, select bank1
  1391  03C3  1303               	bcf	status, 6	;RP1=0, select bank1
  1392  03C4  0856               	movf	(main@map_index)^080h,w
  1393  03C5  120A  118A  27DF   	fcall	___bmul
              120A  118A         
  1394  03CA  3EC4               	addlw	main@frequency_map&0ffh
  1395  03CB  0084               	movwf	fsr0
  1396  03CC  1383               	bcf	status, 7	;select IRP bank1
  1397  03CD  0800               	movf	indf,w
  1398  03CE  1683               	bsf	status, 5	;RP0=1, select bank1
  1399  03CF  1303               	bcf	status, 6	;RP1=0, select bank1
  1400  03D0  00EC               	movwf	(_current_frequency)^080h
  1401  03D1  0A84               	incf	fsr0,f
  1402  03D2  0800               	movf	indf,w
  1403  03D3  00ED               	movwf	(_current_frequency+1)^080h
  1404  03D4  0A84               	incf	fsr0,f
  1405  03D5  0800               	movf	indf,w
  1406  03D6  00EE               	movwf	(_current_frequency+2)^080h
  1407                           	line	93
  1408                           	
  1409  03D7                     l4590:	
  1410                           ;Untitled.c: 93: lcd_clear();
  1411  03D7  120A  158A  22C9   	fcall	_lcd_clear
              120A  118A         
  1412                           	line	94
  1413                           	
  1414  03DC                     l4592:	
  1415                           ;Untitled.c: 94: lcd_puts("Key: ");
  1416  03DC  3011               	movlw	low((STR_5-__stringbase))
  1417  03DD  1283               	bcf	status, 5	;RP0=0, select bank0
  1418  03DE  1303               	bcf	status, 6	;RP1=0, select bank0
  1419  03DF  00A8               	movwf	(?_lcd_puts)
  1420  03E0  3080               	movlw	80h
  1421  03E1  00A9               	movwf	(?_lcd_puts+1)
  1422  03E2  120A  158A  2300   	fcall	_lcd_puts
              120A  118A         
  1423                           	line	95
  1424                           	
  1425  03E7                     l4594:	
  1426                           ;Untitled.c: 95: lcd_putc(key_char);
  1427  03E7  1683               	bsf	status, 5	;RP0=1, select bank1
  1428  03E8  1303               	bcf	status, 6	;RP1=0, select bank1
  1429  03E9  0859               	movf	(main@key_char)^080h,w
  1430  03EA  120A  158A  22A1   	fcall	_lcd_putc
              120A  118A         
  1431                           	line	96
  1432                           	
  1433  03EF                     l4596:	
  1434                           ;Untitled.c: 96: lcd_puts(" Freq: ");
  1435  03EF  3001               	movlw	low((STR_6-__stringbase))
  1436  03F0  1283               	bcf	status, 5	;RP0=0, select bank0
  1437  03F1  1303               	bcf	status, 6	;RP1=0, select bank0
  1438  03F2  00A8               	movwf	(?_lcd_puts)
  1439  03F3  3080               	movlw	80h
  1440  03F4  00A9               	movwf	(?_lcd_puts+1)
  1441  03F5  120A  158A  2300   	fcall	_lcd_puts
              120A  118A         
  1442                           	line	97
  1443                           	
  1444  03FA                     l4598:	
  1445                           ;Untitled.c: 97: lcd_putnumf(current_frequency, 1);
  1446  03FA  1683               	bsf	status, 5	;RP0=1, select bank1
  1447  03FB  1303               	bcf	status, 6	;RP1=0, select bank1
  1448  03FC  086C               	movf	(_current_frequency)^080h,w
  1449  03FD  1283               	bcf	status, 5	;RP0=0, select bank0
  1450  03FE  1303               	bcf	status, 6	;RP1=0, select bank0
  1451  03FF  00DC               	movwf	(?_lcd_putnumf)
  1452  0400  1683               	bsf	status, 5	;RP0=1, select bank1
  1453  0401  1303               	bcf	status, 6	;RP1=0, select bank1
  1454  0402  086D               	movf	(_current_frequency+1)^080h,w
  1455  0403  1283               	bcf	status, 5	;RP0=0, select bank0
  1456  0404  1303               	bcf	status, 6	;RP1=0, select bank0
  1457  0405  00DD               	movwf	(?_lcd_putnumf+1)
  1458  0406  1683               	bsf	status, 5	;RP0=1, select bank1
  1459  0407  1303               	bcf	status, 6	;RP1=0, select bank1
  1460  0408  086E               	movf	(_current_frequency+2)^080h,w
  1461  0409  1283               	bcf	status, 5	;RP0=0, select bank0
  1462  040A  1303               	bcf	status, 6	;RP1=0, select bank0
  1463  040B  00DE               	movwf	(?_lcd_putnumf+2)
  1464  040C  01DF               	clrf	0+(?_lcd_putnumf)+03h
  1465  040D  1403               	bsf	status,0
  1466  040E  0DDF               	rlf	0+(?_lcd_putnumf)+03h,f
  1467  040F  120A  118A  2015   	fcall	_lcd_putnumf
              120A  118A         
  1468                           	line	98
  1469                           	
  1470  0414                     l4600:	
  1471                           ;Untitled.c: 98: lcd_puts("Hz");
  1472  0414  3017               	movlw	low((STR_7-__stringbase))
  1473  0415  1283               	bcf	status, 5	;RP0=0, select bank0
  1474  0416  1303               	bcf	status, 6	;RP1=0, select bank0
  1475  0417  00A8               	movwf	(?_lcd_puts)
  1476  0418  3080               	movlw	80h
  1477  0419  00A9               	movwf	(?_lcd_puts+1)
  1478  041A  120A  158A  2300   	fcall	_lcd_puts
              120A  118A         
  1479                           	line	101
  1480                           	
  1481  041F                     l4602:	
  1482                           ;Untitled.c: 101: set_pwm_frequency(current_frequency);
  1483  041F  1683               	bsf	status, 5	;RP0=1, select bank1
  1484  0420  1303               	bcf	status, 6	;RP1=0, select bank1
  1485  0421  086C               	movf	(_current_frequency)^080h,w
  1486  0422  1283               	bcf	status, 5	;RP0=0, select bank0
  1487  0423  1303               	bcf	status, 6	;RP1=0, select bank0
  1488  0424  00C6               	movwf	(?_set_pwm_frequency)
  1489  0425  1683               	bsf	status, 5	;RP0=1, select bank1
  1490  0426  1303               	bcf	status, 6	;RP1=0, select bank1
  1491  0427  086D               	movf	(_current_frequency+1)^080h,w
  1492  0428  1283               	bcf	status, 5	;RP0=0, select bank0
  1493  0429  1303               	bcf	status, 6	;RP1=0, select bank0
  1494  042A  00C7               	movwf	(?_set_pwm_frequency+1)
  1495  042B  1683               	bsf	status, 5	;RP0=1, select bank1
  1496  042C  1303               	bcf	status, 6	;RP1=0, select bank1
  1497  042D  086E               	movf	(_current_frequency+2)^080h,w
  1498  042E  1283               	bcf	status, 5	;RP0=0, select bank0
  1499  042F  1303               	bcf	status, 6	;RP1=0, select bank0
  1500  0430  00C8               	movwf	(?_set_pwm_frequency+2)
  1501  0431  120A  158A  256C   	fcall	_set_pwm_frequency
              120A  118A         
  1502  0436  2B72               	goto	l4574
  1503                           	line	102
  1504                           	
  1505  0437                     l718:	
  1506  0437  2B72               	goto	l4574
  1507                           	line	103
  1508                           	
  1509  0438                     l715:	
  1510  0438  2B72               	goto	l4574
  1511                           	line	104
  1512                           	
  1513  0439                     l719:	
  1514                           	line	81
  1515  0439  2B72               	goto	l4574
  1516                           	
  1517  043A                     l720:	
  1518                           	line	105
  1519                           	
  1520  043A                     l721:	
  1521                           	global	start
  1522  043A  120A  118A  2812   	ljmp	start
  1523                           	opt stack 0
  1524                           GLOBAL	__end_of_main
  1525  043D                     	__end_of_main:
  1526 ;; =============== function _main ends ============
  1527                           
  1528                           	signat	_main,88
  1529                           	global	_lcd_putnumf
  1530                           psect	text769,local,class=CODE,delta=2
  1531                           global __ptext769
  1532  0015                     __ptext769:
  1533                           
  1534 ;; *************** function _lcd_putnumf *****************
  1535 ;; Defined at:
  1536 ;;		line 219 in file "C:\Users\may\OneDrive\WeiJi\Mplab_workspace\work_together1\Untitled.c"
  1537 ;; Parameters:    Size  Location     Type
  1538 ;;  num             3   60[BANK0 ] float 
  1539 ;;  decimal_plac    1   63[BANK0 ] unsigned char 
  1540 ;; Auto vars:     Size  Location     Type
  1541 ;;  j               1   20[BANK1 ] unsigned char 
  1542 ;;  frac            4   25[BANK1 ] unsigned long 
  1543 ;;  multiplier      4   21[BANK1 ] unsigned long 
  1544 ;;  frac_part       3   16[BANK1 ] float 
  1545 ;;  temp            1   19[BANK1 ] unsigned char 
  1546 ;;  buffer         16    0[BANK1 ] unsigned char [16]
  1547 ;;  int_part        4   31[BANK1 ] unsigned long 
  1548 ;;  i               1   35[BANK1 ] unsigned char 
  1549 ;;  end             1   30[BANK1 ] unsigned char 
  1550 ;;  start           1   29[BANK1 ] unsigned char 
  1551 ;; Return value:  Size  Location     Type
  1552 ;;		None               void
  1553 ;; Registers used:
  1554 ;;		wreg, fsr0l, fsr0h, status,2, status,0, btemp+1, pclath, cstack
  1555 ;; Tracked objects:
  1556 ;;		On entry : 0/0
  1557 ;;		On exit  : 0/0
  1558 ;;		Unchanged: 0/0
  1559 ;; Data sizes:     COMMON   BANK0   BANK1   BANK3   BANK2
  1560 ;;      Params:         0       4       0       0       0
  1561 ;;      Locals:         0       0      36       0       0
  1562 ;;      Temps:          0       1       0       0       0
  1563 ;;      Totals:         0       5      36       0       0
  1564 ;;Total ram usage:       41 bytes
  1565 ;; Hardware stack levels used:    1
  1566 ;; Hardware stack levels required when called:    4
  1567 ;; This function calls:
  1568 ;;		___fttol
  1569 ;;		___llmod
  1570 ;;		___lldiv
  1571 ;;		___lltoft
  1572 ;;		___ftneg
  1573 ;;		___ftadd
  1574 ;;		___lmul
  1575 ;;		___ftmul
  1576 ;;		_lcd_puts
  1577 ;; This function is called by:
  1578 ;;		_main
  1579 ;; This function uses a non-reentrant model
  1580 ;;
  1581                           psect	text769
  1582                           	file	"C:\Users\may\OneDrive\WeiJi\Mplab_workspace\work_together1\Untitled.c"
  1583                           	line	219
  1584                           	global	__size_of_lcd_putnumf
  1585  02E1                     	__size_of_lcd_putnumf	equ	__end_of_lcd_putnumf-_lcd_putnumf
  1586                           	
  1587  0015                     _lcd_putnumf:	
  1588                           	opt	stack 3
  1589                           ; Regs used in _lcd_putnumf: [wreg-fsr0h+status,2+status,0+btemp+1+pclath+cstack]
  1590                           	line	221
  1591                           	
  1592  0015                     l4482:	
  1593                           ;Untitled.c: 220: char buffer[16];
  1594                           ;Untitled.c: 221: unsigned char i = 0;
  1595  0015  1683               	bsf	status, 5	;RP0=1, select bank1
  1596  0016  1303               	bcf	status, 6	;RP1=0, select bank1
  1597  0017  01C3               	clrf	(lcd_putnumf@i)^080h
  1598                           	line	224
  1599                           	
  1600  0018                     l4484:	
  1601                           ;Untitled.c: 224: unsigned long int_part = (unsigned long)num;
  1602  0018  1283               	bcf	status, 5	;RP0=0, select bank0
  1603  0019  1303               	bcf	status, 6	;RP1=0, select bank0
  1604  001A  085C               	movf	(lcd_putnumf@num),w
  1605  001B  00A8               	movwf	(?___fttol)
  1606  001C  085D               	movf	(lcd_putnumf@num+1),w
  1607  001D  00A9               	movwf	(?___fttol+1)
  1608  001E  085E               	movf	(lcd_putnumf@num+2),w
  1609  001F  00AA               	movwf	(?___fttol+2)
  1610  0020  120A  118A  2739   	fcall	___fttol
              120A  118A         
  1611  0025  1283               	bcf	status, 5	;RP0=0, select bank0
  1612  0026  1303               	bcf	status, 6	;RP1=0, select bank0
  1613  0027  082B               	movf	(3+(?___fttol)),w
  1614  0028  1683               	bsf	status, 5	;RP0=1, select bank1
  1615  0029  1303               	bcf	status, 6	;RP1=0, select bank1
  1616  002A  00C2               	movwf	(lcd_putnumf@int_part+3)^080h
  1617  002B  1283               	bcf	status, 5	;RP0=0, select bank0
  1618  002C  1303               	bcf	status, 6	;RP1=0, select bank0
  1619  002D  082A               	movf	(2+(?___fttol)),w
  1620  002E  1683               	bsf	status, 5	;RP0=1, select bank1
  1621  002F  1303               	bcf	status, 6	;RP1=0, select bank1
  1622  0030  00C1               	movwf	(lcd_putnumf@int_part+2)^080h
  1623  0031  1283               	bcf	status, 5	;RP0=0, select bank0
  1624  0032  1303               	bcf	status, 6	;RP1=0, select bank0
  1625  0033  0829               	movf	(1+(?___fttol)),w
  1626  0034  1683               	bsf	status, 5	;RP0=1, select bank1
  1627  0035  1303               	bcf	status, 6	;RP1=0, select bank1
  1628  0036  00C0               	movwf	(lcd_putnumf@int_part+1)^080h
  1629  0037  1283               	bcf	status, 5	;RP0=0, select bank0
  1630  0038  1303               	bcf	status, 6	;RP1=0, select bank0
  1631  0039  0828               	movf	(0+(?___fttol)),w
  1632  003A  1683               	bsf	status, 5	;RP0=1, select bank1
  1633  003B  1303               	bcf	status, 6	;RP1=0, select bank1
  1634  003C  00BF               	movwf	(lcd_putnumf@int_part)^080h
  1635                           
  1636                           	line	225
  1637                           	
  1638  003D                     l4486:	
  1639                           ;Untitled.c: 225: if (int_part == 0) {
  1640  003D  0842               	movf	(lcd_putnumf@int_part+3)^080h,w
  1641  003E  0441               	iorwf	(lcd_putnumf@int_part+2)^080h,w
  1642  003F  0440               	iorwf	(lcd_putnumf@int_part+1)^080h,w
  1643  0040  043F               	iorwf	(lcd_putnumf@int_part)^080h,w
  1644  0041  1D03               	skipz
  1645  0042  2844               	goto	u4631
  1646  0043  2845               	goto	u4630
  1647  0044                     u4631:
  1648  0044  28D7               	goto	l4498
  1649  0045                     u4630:
  1650                           	line	226
  1651                           	
  1652  0045                     l4488:	
  1653                           ;Untitled.c: 226: buffer[i++] = '0';
  1654  0045  3030               	movlw	(030h)
  1655  0046  1283               	bcf	status, 5	;RP0=0, select bank0
  1656  0047  1303               	bcf	status, 6	;RP1=0, select bank0
  1657  0048  00E0               	movwf	(??_lcd_putnumf+0)+0
  1658  0049  1683               	bsf	status, 5	;RP0=1, select bank1
  1659  004A  1303               	bcf	status, 6	;RP1=0, select bank1
  1660  004B  0843               	movf	(lcd_putnumf@i)^080h,w
  1661  004C  3EA0               	addlw	lcd_putnumf@buffer&0ffh
  1662  004D  0084               	movwf	fsr0
  1663  004E  1283               	bcf	status, 5	;RP0=0, select bank0
  1664  004F  1303               	bcf	status, 6	;RP1=0, select bank0
  1665  0050  0860               	movf	(??_lcd_putnumf+0)+0,w
  1666  0051  1383               	bcf	status, 7	;select IRP bank1
  1667  0052  0080               	movwf	indf
  1668                           	
  1669  0053                     l4490:	
  1670  0053  3001               	movlw	(01h)
  1671  0054  00E0               	movwf	(??_lcd_putnumf+0)+0
  1672  0055  0860               	movf	(??_lcd_putnumf+0)+0,w
  1673  0056  1683               	bsf	status, 5	;RP0=1, select bank1
  1674  0057  1303               	bcf	status, 6	;RP1=0, select bank1
  1675  0058  07C3               	addwf	(lcd_putnumf@i)^080h,f
  1676                           	line	227
  1677                           ;Untitled.c: 227: } else {
  1678  0059  28E0               	goto	l760
  1679                           	
  1680  005A                     l759:	
  1681                           	line	228
  1682                           ;Untitled.c: 228: while (int_part > 0) {
  1683  005A  28D7               	goto	l4498
  1684                           	
  1685  005B                     l762:	
  1686                           	line	229
  1687                           	
  1688  005B                     l4492:	
  1689                           ;Untitled.c: 229: buffer[i++] = (int_part % 10) + '0';
  1690  005B  3000               	movlw	0
  1691  005C  1283               	bcf	status, 5	;RP0=0, select bank0
  1692  005D  1303               	bcf	status, 6	;RP1=0, select bank0
  1693  005E  00A3               	movwf	(?___llmod+3)
  1694  005F  3000               	movlw	0
  1695  0060  00A2               	movwf	(?___llmod+2)
  1696  0061  3000               	movlw	0
  1697  0062  00A1               	movwf	(?___llmod+1)
  1698  0063  300A               	movlw	0Ah
  1699  0064  00A0               	movwf	(?___llmod)
  1700                           
  1701  0065  1683               	bsf	status, 5	;RP0=1, select bank1
  1702  0066  1303               	bcf	status, 6	;RP1=0, select bank1
  1703  0067  0842               	movf	(lcd_putnumf@int_part+3)^080h,w
  1704  0068  1283               	bcf	status, 5	;RP0=0, select bank0
  1705  0069  1303               	bcf	status, 6	;RP1=0, select bank0
  1706  006A  00A7               	movwf	3+(?___llmod)+04h
  1707  006B  1683               	bsf	status, 5	;RP0=1, select bank1
  1708  006C  1303               	bcf	status, 6	;RP1=0, select bank1
  1709  006D  0841               	movf	(lcd_putnumf@int_part+2)^080h,w
  1710  006E  1283               	bcf	status, 5	;RP0=0, select bank0
  1711  006F  1303               	bcf	status, 6	;RP1=0, select bank0
  1712  0070  00A6               	movwf	2+(?___llmod)+04h
  1713  0071  1683               	bsf	status, 5	;RP0=1, select bank1
  1714  0072  1303               	bcf	status, 6	;RP1=0, select bank1
  1715  0073  0840               	movf	(lcd_putnumf@int_part+1)^080h,w
  1716  0074  1283               	bcf	status, 5	;RP0=0, select bank0
  1717  0075  1303               	bcf	status, 6	;RP1=0, select bank0
  1718  0076  00A5               	movwf	1+(?___llmod)+04h
  1719  0077  1683               	bsf	status, 5	;RP0=1, select bank1
  1720  0078  1303               	bcf	status, 6	;RP1=0, select bank1
  1721  0079  083F               	movf	(lcd_putnumf@int_part)^080h,w
  1722  007A  1283               	bcf	status, 5	;RP0=0, select bank0
  1723  007B  1303               	bcf	status, 6	;RP1=0, select bank0
  1724  007C  00A4               	movwf	0+(?___llmod)+04h
  1725                           
  1726  007D  120A  158A  249E   	fcall	___llmod
              120A  118A         
  1727  0082  1283               	bcf	status, 5	;RP0=0, select bank0
  1728  0083  1303               	bcf	status, 6	;RP1=0, select bank0
  1729  0084  0820               	movf	0+(((0+(?___llmod)))),w
  1730  0085  3E30               	addlw	030h
  1731  0086  00E0               	movwf	(??_lcd_putnumf+0)+0
  1732  0087  1683               	bsf	status, 5	;RP0=1, select bank1
  1733  0088  1303               	bcf	status, 6	;RP1=0, select bank1
  1734  0089  0843               	movf	(lcd_putnumf@i)^080h,w
  1735  008A  3EA0               	addlw	lcd_putnumf@buffer&0ffh
  1736  008B  0084               	movwf	fsr0
  1737  008C  1283               	bcf	status, 5	;RP0=0, select bank0
  1738  008D  1303               	bcf	status, 6	;RP1=0, select bank0
  1739  008E  0860               	movf	(??_lcd_putnumf+0)+0,w
  1740  008F  1383               	bcf	status, 7	;select IRP bank1
  1741  0090  0080               	movwf	indf
  1742                           	
  1743  0091                     l4494:	
  1744  0091  3001               	movlw	(01h)
  1745  0092  00E0               	movwf	(??_lcd_putnumf+0)+0
  1746  0093  0860               	movf	(??_lcd_putnumf+0)+0,w
  1747  0094  1683               	bsf	status, 5	;RP0=1, select bank1
  1748  0095  1303               	bcf	status, 6	;RP1=0, select bank1
  1749  0096  07C3               	addwf	(lcd_putnumf@i)^080h,f
  1750                           	line	230
  1751                           	
  1752  0097                     l4496:	
  1753                           ;Untitled.c: 230: int_part /= 10;
  1754  0097  3000               	movlw	0
  1755  0098  1283               	bcf	status, 5	;RP0=0, select bank0
  1756  0099  1303               	bcf	status, 6	;RP1=0, select bank0
  1757  009A  00A3               	movwf	(?___lldiv+3)
  1758  009B  3000               	movlw	0
  1759  009C  00A2               	movwf	(?___lldiv+2)
  1760  009D  3000               	movlw	0
  1761  009E  00A1               	movwf	(?___lldiv+1)
  1762  009F  300A               	movlw	0Ah
  1763  00A0  00A0               	movwf	(?___lldiv)
  1764                           
  1765  00A1  1683               	bsf	status, 5	;RP0=1, select bank1
  1766  00A2  1303               	bcf	status, 6	;RP1=0, select bank1
  1767  00A3  0842               	movf	(lcd_putnumf@int_part+3)^080h,w
  1768  00A4  1283               	bcf	status, 5	;RP0=0, select bank0
  1769  00A5  1303               	bcf	status, 6	;RP1=0, select bank0
  1770  00A6  00A7               	movwf	3+(?___lldiv)+04h
  1771  00A7  1683               	bsf	status, 5	;RP0=1, select bank1
  1772  00A8  1303               	bcf	status, 6	;RP1=0, select bank1
  1773  00A9  0841               	movf	(lcd_putnumf@int_part+2)^080h,w
  1774  00AA  1283               	bcf	status, 5	;RP0=0, select bank0
  1775  00AB  1303               	bcf	status, 6	;RP1=0, select bank0
  1776  00AC  00A6               	movwf	2+(?___lldiv)+04h
  1777  00AD  1683               	bsf	status, 5	;RP0=1, select bank1
  1778  00AE  1303               	bcf	status, 6	;RP1=0, select bank1
  1779  00AF  0840               	movf	(lcd_putnumf@int_part+1)^080h,w
  1780  00B0  1283               	bcf	status, 5	;RP0=0, select bank0
  1781  00B1  1303               	bcf	status, 6	;RP1=0, select bank0
  1782  00B2  00A5               	movwf	1+(?___lldiv)+04h
  1783  00B3  1683               	bsf	status, 5	;RP0=1, select bank1
  1784  00B4  1303               	bcf	status, 6	;RP1=0, select bank1
  1785  00B5  083F               	movf	(lcd_putnumf@int_part)^080h,w
  1786  00B6  1283               	bcf	status, 5	;RP0=0, select bank0
  1787  00B7  1303               	bcf	status, 6	;RP1=0, select bank0
  1788  00B8  00A4               	movwf	0+(?___lldiv)+04h
  1789                           
  1790  00B9  120A  158A  24FC   	fcall	___lldiv
              120A  118A         
  1791  00BE  1283               	bcf	status, 5	;RP0=0, select bank0
  1792  00BF  1303               	bcf	status, 6	;RP1=0, select bank0
  1793  00C0  0823               	movf	(3+(?___lldiv)),w
  1794  00C1  1683               	bsf	status, 5	;RP0=1, select bank1
  1795  00C2  1303               	bcf	status, 6	;RP1=0, select bank1
  1796  00C3  00C2               	movwf	(lcd_putnumf@int_part+3)^080h
  1797  00C4  1283               	bcf	status, 5	;RP0=0, select bank0
  1798  00C5  1303               	bcf	status, 6	;RP1=0, select bank0
  1799  00C6  0822               	movf	(2+(?___lldiv)),w
  1800  00C7  1683               	bsf	status, 5	;RP0=1, select bank1
  1801  00C8  1303               	bcf	status, 6	;RP1=0, select bank1
  1802  00C9  00C1               	movwf	(lcd_putnumf@int_part+2)^080h
  1803  00CA  1283               	bcf	status, 5	;RP0=0, select bank0
  1804  00CB  1303               	bcf	status, 6	;RP1=0, select bank0
  1805  00CC  0821               	movf	(1+(?___lldiv)),w
  1806  00CD  1683               	bsf	status, 5	;RP0=1, select bank1
  1807  00CE  1303               	bcf	status, 6	;RP1=0, select bank1
  1808  00CF  00C0               	movwf	(lcd_putnumf@int_part+1)^080h
  1809  00D0  1283               	bcf	status, 5	;RP0=0, select bank0
  1810  00D1  1303               	bcf	status, 6	;RP1=0, select bank0
  1811  00D2  0820               	movf	(0+(?___lldiv)),w
  1812  00D3  1683               	bsf	status, 5	;RP0=1, select bank1
  1813  00D4  1303               	bcf	status, 6	;RP1=0, select bank1
  1814  00D5  00BF               	movwf	(lcd_putnumf@int_part)^080h
  1815                           
  1816  00D6  28D7               	goto	l4498
  1817                           	line	231
  1818                           	
  1819  00D7                     l761:	
  1820                           	line	228
  1821                           	
  1822  00D7                     l4498:	
  1823  00D7  0842               	movf	(lcd_putnumf@int_part+3)^080h,w
  1824  00D8  0441               	iorwf	(lcd_putnumf@int_part+2)^080h,w
  1825  00D9  0440               	iorwf	(lcd_putnumf@int_part+1)^080h,w
  1826  00DA  043F               	iorwf	(lcd_putnumf@int_part)^080h,w
  1827  00DB  1D03               	skipz
  1828  00DC  28DE               	goto	u4641
  1829  00DD  28DF               	goto	u4640
  1830  00DE                     u4641:
  1831  00DE  285B               	goto	l4492
  1832  00DF                     u4640:
  1833  00DF  28E0               	goto	l760
  1834                           	
  1835  00E0                     l763:	
  1836                           	line	232
  1837                           	
  1838  00E0                     l760:	
  1839                           	line	235
  1840                           ;Untitled.c: 231: }
  1841                           ;Untitled.c: 232: }
  1842                           ;Untitled.c: 235: unsigned char start = 0, end = i - 1;
  1843  00E0  01BD               	clrf	(lcd_putnumf@start)^080h
  1844                           	
  1845  00E1                     l4500:	
  1846  00E1  0843               	movf	(lcd_putnumf@i)^080h,w
  1847  00E2  3EFF               	addlw	0FFh
  1848  00E3  1283               	bcf	status, 5	;RP0=0, select bank0
  1849  00E4  1303               	bcf	status, 6	;RP1=0, select bank0
  1850  00E5  00E0               	movwf	(??_lcd_putnumf+0)+0
  1851  00E6  0860               	movf	(??_lcd_putnumf+0)+0,w
  1852  00E7  1683               	bsf	status, 5	;RP0=1, select bank1
  1853  00E8  1303               	bcf	status, 6	;RP1=0, select bank1
  1854  00E9  00BE               	movwf	(lcd_putnumf@end)^080h
  1855                           	line	236
  1856                           ;Untitled.c: 236: while (start < end) {
  1857  00EA  291F               	goto	l4508
  1858                           	
  1859  00EB                     l765:	
  1860                           	line	237
  1861                           	
  1862  00EB                     l4502:	
  1863                           ;Untitled.c: 237: char temp = buffer[start];
  1864  00EB  083D               	movf	(lcd_putnumf@start)^080h,w
  1865  00EC  3EA0               	addlw	lcd_putnumf@buffer&0ffh
  1866  00ED  0084               	movwf	fsr0
  1867  00EE  1383               	bcf	status, 7	;select IRP bank1
  1868  00EF  0800               	movf	indf,w
  1869  00F0  1283               	bcf	status, 5	;RP0=0, select bank0
  1870  00F1  1303               	bcf	status, 6	;RP1=0, select bank0
  1871  00F2  00E0               	movwf	(??_lcd_putnumf+0)+0
  1872  00F3  0860               	movf	(??_lcd_putnumf+0)+0,w
  1873  00F4  1683               	bsf	status, 5	;RP0=1, select bank1
  1874  00F5  1303               	bcf	status, 6	;RP1=0, select bank1
  1875  00F6  00B3               	movwf	(lcd_putnumf@temp)^080h
  1876                           	line	238
  1877                           ;Untitled.c: 238: buffer[start] = buffer[end];
  1878  00F7  083E               	movf	(lcd_putnumf@end)^080h,w
  1879  00F8  3EA0               	addlw	lcd_putnumf@buffer&0ffh
  1880  00F9  0084               	movwf	fsr0
  1881  00FA  0800               	movf	indf,w
  1882  00FB  1283               	bcf	status, 5	;RP0=0, select bank0
  1883  00FC  1303               	bcf	status, 6	;RP1=0, select bank0
  1884  00FD  00E0               	movwf	(??_lcd_putnumf+0)+0
  1885  00FE  1683               	bsf	status, 5	;RP0=1, select bank1
  1886  00FF  1303               	bcf	status, 6	;RP1=0, select bank1
  1887  0100  083D               	movf	(lcd_putnumf@start)^080h,w
  1888  0101  3EA0               	addlw	lcd_putnumf@buffer&0ffh
  1889  0102  0084               	movwf	fsr0
  1890  0103  1283               	bcf	status, 5	;RP0=0, select bank0
  1891  0104  1303               	bcf	status, 6	;RP1=0, select bank0
  1892  0105  0860               	movf	(??_lcd_putnumf+0)+0,w
  1893  0106  0080               	movwf	indf
  1894                           	line	239
  1895                           ;Untitled.c: 239: buffer[end] = temp;
  1896  0107  1683               	bsf	status, 5	;RP0=1, select bank1
  1897  0108  1303               	bcf	status, 6	;RP1=0, select bank1
  1898  0109  0833               	movf	(lcd_putnumf@temp)^080h,w
  1899  010A  1283               	bcf	status, 5	;RP0=0, select bank0
  1900  010B  1303               	bcf	status, 6	;RP1=0, select bank0
  1901  010C  00E0               	movwf	(??_lcd_putnumf+0)+0
  1902  010D  1683               	bsf	status, 5	;RP0=1, select bank1
  1903  010E  1303               	bcf	status, 6	;RP1=0, select bank1
  1904  010F  083E               	movf	(lcd_putnumf@end)^080h,w
  1905  0110  3EA0               	addlw	lcd_putnumf@buffer&0ffh
  1906  0111  0084               	movwf	fsr0
  1907  0112  1283               	bcf	status, 5	;RP0=0, select bank0
  1908  0113  1303               	bcf	status, 6	;RP1=0, select bank0
  1909  0114  0860               	movf	(??_lcd_putnumf+0)+0,w
  1910  0115  0080               	movwf	indf
  1911                           	line	240
  1912                           	
  1913  0116                     l4504:	
  1914                           ;Untitled.c: 240: start++;
  1915  0116  3001               	movlw	(01h)
  1916  0117  00E0               	movwf	(??_lcd_putnumf+0)+0
  1917  0118  0860               	movf	(??_lcd_putnumf+0)+0,w
  1918  0119  1683               	bsf	status, 5	;RP0=1, select bank1
  1919  011A  1303               	bcf	status, 6	;RP1=0, select bank1
  1920  011B  07BD               	addwf	(lcd_putnumf@start)^080h,f
  1921                           	line	241
  1922                           	
  1923  011C                     l4506:	
  1924                           ;Untitled.c: 241: end--;
  1925  011C  3001               	movlw	low(01h)
  1926  011D  02BE               	subwf	(lcd_putnumf@end)^080h,f
  1927  011E  291F               	goto	l4508
  1928                           	line	242
  1929                           	
  1930  011F                     l764:	
  1931                           	line	236
  1932                           	
  1933  011F                     l4508:	
  1934  011F  083E               	movf	(lcd_putnumf@end)^080h,w
  1935  0120  023D               	subwf	(lcd_putnumf@start)^080h,w
  1936  0121  1C03               	skipc
  1937  0122  2924               	goto	u4651
  1938  0123  2925               	goto	u4650
  1939  0124                     u4651:
  1940  0124  28EB               	goto	l4502
  1941  0125                     u4650:
  1942  0125  2926               	goto	l4510
  1943                           	
  1944  0126                     l766:	
  1945                           	line	245
  1946                           	
  1947  0126                     l4510:	
  1948                           ;Untitled.c: 242: }
  1949                           ;Untitled.c: 245: if (decimal_places > 0) {
  1950  0126  1283               	bcf	status, 5	;RP0=0, select bank0
  1951  0127  1303               	bcf	status, 6	;RP1=0, select bank0
  1952  0128  085F               	movf	(lcd_putnumf@decimal_places),w
  1953  0129  1D03               	skipz
  1954  012A  292C               	goto	u4660
  1955  012B  2AE3               	goto	l4540
  1956  012C                     u4660:
  1957                           	line	246
  1958                           	
  1959  012C                     l4512:	
  1960                           ;Untitled.c: 246: buffer[i++] = '.';
  1961  012C  302E               	movlw	(02Eh)
  1962  012D  00E0               	movwf	(??_lcd_putnumf+0)+0
  1963  012E  1683               	bsf	status, 5	;RP0=1, select bank1
  1964  012F  1303               	bcf	status, 6	;RP1=0, select bank1
  1965  0130  0843               	movf	(lcd_putnumf@i)^080h,w
  1966  0131  3EA0               	addlw	lcd_putnumf@buffer&0ffh
  1967  0132  0084               	movwf	fsr0
  1968  0133  1283               	bcf	status, 5	;RP0=0, select bank0
  1969  0134  1303               	bcf	status, 6	;RP1=0, select bank0
  1970  0135  0860               	movf	(??_lcd_putnumf+0)+0,w
  1971  0136  1383               	bcf	status, 7	;select IRP bank1
  1972  0137  0080               	movwf	indf
  1973                           	
  1974  0138                     l4514:	
  1975  0138  3001               	movlw	(01h)
  1976  0139  00E0               	movwf	(??_lcd_putnumf+0)+0
  1977  013A  0860               	movf	(??_lcd_putnumf+0)+0,w
  1978  013B  1683               	bsf	status, 5	;RP0=1, select bank1
  1979  013C  1303               	bcf	status, 6	;RP1=0, select bank1
  1980  013D  07C3               	addwf	(lcd_putnumf@i)^080h,f
  1981                           	line	247
  1982                           	
  1983  013E                     l4516:	
  1984                           ;Untitled.c: 247: float frac_part = num - (float)(unsigned long)num;
  1985  013E  1283               	bcf	status, 5	;RP0=0, select bank0
  1986  013F  1303               	bcf	status, 6	;RP1=0, select bank0
  1987  0140  085C               	movf	(lcd_putnumf@num),w
  1988  0141  00CF               	movwf	(?___ftadd)
  1989  0142  085D               	movf	(lcd_putnumf@num+1),w
  1990  0143  00D0               	movwf	(?___ftadd+1)
  1991  0144  085E               	movf	(lcd_putnumf@num+2),w
  1992  0145  00D1               	movwf	(?___ftadd+2)
  1993  0146  085C               	movf	(lcd_putnumf@num),w
  1994  0147  00A8               	movwf	(?___fttol)
  1995  0148  085D               	movf	(lcd_putnumf@num+1),w
  1996  0149  00A9               	movwf	(?___fttol+1)
  1997  014A  085E               	movf	(lcd_putnumf@num+2),w
  1998  014B  00AA               	movwf	(?___fttol+2)
  1999  014C  120A  118A  2739   	fcall	___fttol
              120A  118A         
  2000  0151  1283               	bcf	status, 5	;RP0=0, select bank0
  2001  0152  1303               	bcf	status, 6	;RP1=0, select bank0
  2002  0153  082B               	movf	(3+(?___fttol)),w
  2003  0154  00BC               	movwf	(?___lltoft+3)
  2004  0155  082A               	movf	(2+(?___fttol)),w
  2005  0156  00BB               	movwf	(?___lltoft+2)
  2006  0157  0829               	movf	(1+(?___fttol)),w
  2007  0158  00BA               	movwf	(?___lltoft+1)
  2008  0159  0828               	movf	(0+(?___fttol)),w
  2009  015A  00B9               	movwf	(?___lltoft)
  2010                           
  2011  015B  120A  158A  2395   	fcall	___lltoft
              120A  118A         
  2012  0160  1283               	bcf	status, 5	;RP0=0, select bank0
  2013  0161  1303               	bcf	status, 6	;RP1=0, select bank0
  2014  0162  0839               	movf	(0+(?___lltoft)),w
  2015  0163  00B6               	movwf	(?___ftneg)
  2016  0164  083A               	movf	(1+(?___lltoft)),w
  2017  0165  00B7               	movwf	(?___ftneg+1)
  2018  0166  083B               	movf	(2+(?___lltoft)),w
  2019  0167  00B8               	movwf	(?___ftneg+2)
  2020  0168  120A  158A  22AB   	fcall	___ftneg
              120A  118A         
  2021  016D  1283               	bcf	status, 5	;RP0=0, select bank0
  2022  016E  1303               	bcf	status, 6	;RP1=0, select bank0
  2023  016F  0836               	movf	(0+(?___ftneg)),w
  2024  0170  00D2               	movwf	0+(?___ftadd)+03h
  2025  0171  0837               	movf	(1+(?___ftneg)),w
  2026  0172  00D3               	movwf	1+(?___ftadd)+03h
  2027  0173  0838               	movf	(2+(?___ftneg)),w
  2028  0174  00D4               	movwf	2+(?___ftadd)+03h
  2029  0175  120A  118A  243D   	fcall	___ftadd
              120A  118A         
  2030  017A  1283               	bcf	status, 5	;RP0=0, select bank0
  2031  017B  1303               	bcf	status, 6	;RP1=0, select bank0
  2032  017C  084F               	movf	(0+(?___ftadd)),w
  2033  017D  1683               	bsf	status, 5	;RP0=1, select bank1
  2034  017E  1303               	bcf	status, 6	;RP1=0, select bank1
  2035  017F  00B0               	movwf	(lcd_putnumf@frac_part)^080h
  2036  0180  1283               	bcf	status, 5	;RP0=0, select bank0
  2037  0181  1303               	bcf	status, 6	;RP1=0, select bank0
  2038  0182  0850               	movf	(1+(?___ftadd)),w
  2039  0183  1683               	bsf	status, 5	;RP0=1, select bank1
  2040  0184  1303               	bcf	status, 6	;RP1=0, select bank1
  2041  0185  00B1               	movwf	(lcd_putnumf@frac_part+1)^080h
  2042  0186  1283               	bcf	status, 5	;RP0=0, select bank0
  2043  0187  1303               	bcf	status, 6	;RP1=0, select bank0
  2044  0188  0851               	movf	(2+(?___ftadd)),w
  2045  0189  1683               	bsf	status, 5	;RP0=1, select bank1
  2046  018A  1303               	bcf	status, 6	;RP1=0, select bank1
  2047  018B  00B2               	movwf	(lcd_putnumf@frac_part+2)^080h
  2048                           	line	248
  2049                           	
  2050  018C                     l4518:	
  2051                           ;Untitled.c: 248: unsigned long multiplier = 1;
  2052  018C  3000               	movlw	0
  2053  018D  00B8               	movwf	(lcd_putnumf@multiplier+3)^080h
  2054  018E  3000               	movlw	0
  2055  018F  00B7               	movwf	(lcd_putnumf@multiplier+2)^080h
  2056  0190  3000               	movlw	0
  2057  0191  00B6               	movwf	(lcd_putnumf@multiplier+1)^080h
  2058  0192  3001               	movlw	01h
  2059  0193  00B5               	movwf	(lcd_putnumf@multiplier)^080h
  2060                           
  2061                           	line	249
  2062                           	
  2063  0194                     l4520:	
  2064                           ;Untitled.c: 249: for (unsigned char j = 0; j < decimal_places; j++) {
  2065  0194  01B4               	clrf	(lcd_putnumf@j)^080h
  2066  0195  29DE               	goto	l4526
  2067                           	
  2068  0196                     l769:	
  2069                           	line	250
  2070                           	
  2071  0196                     l4522:	
  2072                           ;Untitled.c: 250: multiplier *= 10;
  2073  0196  3000               	movlw	0
  2074  0197  1283               	bcf	status, 5	;RP0=0, select bank0
  2075  0198  1303               	bcf	status, 6	;RP1=0, select bank0
  2076  0199  00A3               	movwf	(?___lmul+3)
  2077  019A  3000               	movlw	0
  2078  019B  00A2               	movwf	(?___lmul+2)
  2079  019C  3000               	movlw	0
  2080  019D  00A1               	movwf	(?___lmul+1)
  2081  019E  300A               	movlw	0Ah
  2082  019F  00A0               	movwf	(?___lmul)
  2083                           
  2084  01A0  1683               	bsf	status, 5	;RP0=1, select bank1
  2085  01A1  1303               	bcf	status, 6	;RP1=0, select bank1
  2086  01A2  0838               	movf	(lcd_putnumf@multiplier+3)^080h,w
  2087  01A3  1283               	bcf	status, 5	;RP0=0, select bank0
  2088  01A4  1303               	bcf	status, 6	;RP1=0, select bank0
  2089  01A5  00A7               	movwf	3+(?___lmul)+04h
  2090  01A6  1683               	bsf	status, 5	;RP0=1, select bank1
  2091  01A7  1303               	bcf	status, 6	;RP1=0, select bank1
  2092  01A8  0837               	movf	(lcd_putnumf@multiplier+2)^080h,w
  2093  01A9  1283               	bcf	status, 5	;RP0=0, select bank0
  2094  01AA  1303               	bcf	status, 6	;RP1=0, select bank0
  2095  01AB  00A6               	movwf	2+(?___lmul)+04h
  2096  01AC  1683               	bsf	status, 5	;RP0=1, select bank1
  2097  01AD  1303               	bcf	status, 6	;RP1=0, select bank1
  2098  01AE  0836               	movf	(lcd_putnumf@multiplier+1)^080h,w
  2099  01AF  1283               	bcf	status, 5	;RP0=0, select bank0
  2100  01B0  1303               	bcf	status, 6	;RP1=0, select bank0
  2101  01B1  00A5               	movwf	1+(?___lmul)+04h
  2102  01B2  1683               	bsf	status, 5	;RP0=1, select bank1
  2103  01B3  1303               	bcf	status, 6	;RP1=0, select bank1
  2104  01B4  0835               	movf	(lcd_putnumf@multiplier)^080h,w
  2105  01B5  1283               	bcf	status, 5	;RP0=0, select bank0
  2106  01B6  1303               	bcf	status, 6	;RP1=0, select bank0
  2107  01B7  00A4               	movwf	0+(?___lmul)+04h
  2108                           
  2109  01B8  120A  158A  2452   	fcall	___lmul
              120A  118A         
  2110  01BD  1283               	bcf	status, 5	;RP0=0, select bank0
  2111  01BE  1303               	bcf	status, 6	;RP1=0, select bank0
  2112  01BF  0823               	movf	(3+(?___lmul)),w
  2113  01C0  1683               	bsf	status, 5	;RP0=1, select bank1
  2114  01C1  1303               	bcf	status, 6	;RP1=0, select bank1
  2115  01C2  00B8               	movwf	(lcd_putnumf@multiplier+3)^080h
  2116  01C3  1283               	bcf	status, 5	;RP0=0, select bank0
  2117  01C4  1303               	bcf	status, 6	;RP1=0, select bank0
  2118  01C5  0822               	movf	(2+(?___lmul)),w
  2119  01C6  1683               	bsf	status, 5	;RP0=1, select bank1
  2120  01C7  1303               	bcf	status, 6	;RP1=0, select bank1
  2121  01C8  00B7               	movwf	(lcd_putnumf@multiplier+2)^080h
  2122  01C9  1283               	bcf	status, 5	;RP0=0, select bank0
  2123  01CA  1303               	bcf	status, 6	;RP1=0, select bank0
  2124  01CB  0821               	movf	(1+(?___lmul)),w
  2125  01CC  1683               	bsf	status, 5	;RP0=1, select bank1
  2126  01CD  1303               	bcf	status, 6	;RP1=0, select bank1
  2127  01CE  00B6               	movwf	(lcd_putnumf@multiplier+1)^080h
  2128  01CF  1283               	bcf	status, 5	;RP0=0, select bank0
  2129  01D0  1303               	bcf	status, 6	;RP1=0, select bank0
  2130  01D1  0820               	movf	(0+(?___lmul)),w
  2131  01D2  1683               	bsf	status, 5	;RP0=1, select bank1
  2132  01D3  1303               	bcf	status, 6	;RP1=0, select bank1
  2133  01D4  00B5               	movwf	(lcd_putnumf@multiplier)^080h
  2134                           
  2135                           	line	249
  2136                           	
  2137  01D5                     l4524:	
  2138  01D5  3001               	movlw	(01h)
  2139  01D6  1283               	bcf	status, 5	;RP0=0, select bank0
  2140  01D7  1303               	bcf	status, 6	;RP1=0, select bank0
  2141  01D8  00E0               	movwf	(??_lcd_putnumf+0)+0
  2142  01D9  0860               	movf	(??_lcd_putnumf+0)+0,w
  2143  01DA  1683               	bsf	status, 5	;RP0=1, select bank1
  2144  01DB  1303               	bcf	status, 6	;RP1=0, select bank1
  2145  01DC  07B4               	addwf	(lcd_putnumf@j)^080h,f
  2146  01DD  29DE               	goto	l4526
  2147                           	
  2148  01DE                     l768:	
  2149                           	
  2150  01DE                     l4526:	
  2151  01DE  1283               	bcf	status, 5	;RP0=0, select bank0
  2152  01DF  1303               	bcf	status, 6	;RP1=0, select bank0
  2153  01E0  085F               	movf	(lcd_putnumf@decimal_places),w
  2154  01E1  1683               	bsf	status, 5	;RP0=1, select bank1
  2155  01E2  1303               	bcf	status, 6	;RP1=0, select bank1
  2156  01E3  0234               	subwf	(lcd_putnumf@j)^080h,w
  2157  01E4  1C03               	skipc
  2158  01E5  29E7               	goto	u4671
  2159  01E6  29E8               	goto	u4670
  2160  01E7                     u4671:
  2161  01E7  2996               	goto	l4522
  2162  01E8                     u4670:
  2163  01E8  29E9               	goto	l4528
  2164                           	
  2165  01E9                     l770:	
  2166                           	line	252
  2167                           	
  2168  01E9                     l4528:	
  2169                           ;Untitled.c: 251: }
  2170                           ;Untitled.c: 252: unsigned long frac = (unsigned long)(frac_part * multiplier + 0.5);
  2171  01E9  0838               	movf	(lcd_putnumf@multiplier+3)^080h,w
  2172  01EA  1283               	bcf	status, 5	;RP0=0, select bank0
  2173  01EB  1303               	bcf	status, 6	;RP1=0, select bank0
  2174  01EC  00BC               	movwf	(?___lltoft+3)
  2175  01ED  1683               	bsf	status, 5	;RP0=1, select bank1
  2176  01EE  1303               	bcf	status, 6	;RP1=0, select bank1
  2177  01EF  0837               	movf	(lcd_putnumf@multiplier+2)^080h,w
  2178  01F0  1283               	bcf	status, 5	;RP0=0, select bank0
  2179  01F1  1303               	bcf	status, 6	;RP1=0, select bank0
  2180  01F2  00BB               	movwf	(?___lltoft+2)
  2181  01F3  1683               	bsf	status, 5	;RP0=1, select bank1
  2182  01F4  1303               	bcf	status, 6	;RP1=0, select bank1
  2183  01F5  0836               	movf	(lcd_putnumf@multiplier+1)^080h,w
  2184  01F6  1283               	bcf	status, 5	;RP0=0, select bank0
  2185  01F7  1303               	bcf	status, 6	;RP1=0, select bank0
  2186  01F8  00BA               	movwf	(?___lltoft+1)
  2187  01F9  1683               	bsf	status, 5	;RP0=1, select bank1
  2188  01FA  1303               	bcf	status, 6	;RP1=0, select bank1
  2189  01FB  0835               	movf	(lcd_putnumf@multiplier)^080h,w
  2190  01FC  1283               	bcf	status, 5	;RP0=0, select bank0
  2191  01FD  1303               	bcf	status, 6	;RP1=0, select bank0
  2192  01FE  00B9               	movwf	(?___lltoft)
  2193                           
  2194  01FF  120A  158A  2395   	fcall	___lltoft
              120A  118A         
  2195  0204  1283               	bcf	status, 5	;RP0=0, select bank0
  2196  0205  1303               	bcf	status, 6	;RP1=0, select bank0
  2197  0206  0839               	movf	(0+(?___lltoft)),w
  2198  0207  00C2               	movwf	0+(?___ftmul)+03h
  2199  0208  083A               	movf	(1+(?___lltoft)),w
  2200  0209  00C3               	movwf	1+(?___ftmul)+03h
  2201  020A  083B               	movf	(2+(?___lltoft)),w
  2202  020B  00C4               	movwf	2+(?___ftmul)+03h
  2203  020C  1683               	bsf	status, 5	;RP0=1, select bank1
  2204  020D  1303               	bcf	status, 6	;RP1=0, select bank1
  2205  020E  0830               	movf	(lcd_putnumf@frac_part)^080h,w
  2206  020F  1283               	bcf	status, 5	;RP0=0, select bank0
  2207  0210  1303               	bcf	status, 6	;RP1=0, select bank0
  2208  0211  00BF               	movwf	(?___ftmul)
  2209  0212  1683               	bsf	status, 5	;RP0=1, select bank1
  2210  0213  1303               	bcf	status, 6	;RP1=0, select bank1
  2211  0214  0831               	movf	(lcd_putnumf@frac_part+1)^080h,w
  2212  0215  1283               	bcf	status, 5	;RP0=0, select bank0
  2213  0216  1303               	bcf	status, 6	;RP1=0, select bank0
  2214  0217  00C0               	movwf	(?___ftmul+1)
  2215  0218  1683               	bsf	status, 5	;RP0=1, select bank1
  2216  0219  1303               	bcf	status, 6	;RP1=0, select bank1
  2217  021A  0832               	movf	(lcd_putnumf@frac_part+2)^080h,w
  2218  021B  1283               	bcf	status, 5	;RP0=0, select bank0
  2219  021C  1303               	bcf	status, 6	;RP1=0, select bank0
  2220  021D  00C1               	movwf	(?___ftmul+2)
  2221  021E  120A  118A  2583   	fcall	___ftmul
              120A  118A         
  2222  0223  1283               	bcf	status, 5	;RP0=0, select bank0
  2223  0224  1303               	bcf	status, 6	;RP1=0, select bank0
  2224  0225  083F               	movf	(0+(?___ftmul)),w
  2225  0226  00D2               	movwf	0+(?___ftadd)+03h
  2226  0227  0840               	movf	(1+(?___ftmul)),w
  2227  0228  00D3               	movwf	1+(?___ftadd)+03h
  2228  0229  0841               	movf	(2+(?___ftmul)),w
  2229  022A  00D4               	movwf	2+(?___ftadd)+03h
  2230  022B  3000               	movlw	0x0
  2231  022C  00CF               	movwf	(?___ftadd)
  2232  022D  3000               	movlw	0x0
  2233  022E  00D0               	movwf	(?___ftadd+1)
  2234  022F  303F               	movlw	0x3f
  2235  0230  00D1               	movwf	(?___ftadd+2)
  2236  0231  120A  118A  243D   	fcall	___ftadd
              120A  118A         
  2237  0236  1283               	bcf	status, 5	;RP0=0, select bank0
  2238  0237  1303               	bcf	status, 6	;RP1=0, select bank0
  2239  0238  084F               	movf	(0+(?___ftadd)),w
  2240  0239  00A8               	movwf	(?___fttol)
  2241  023A  0850               	movf	(1+(?___ftadd)),w
  2242  023B  00A9               	movwf	(?___fttol+1)
  2243  023C  0851               	movf	(2+(?___ftadd)),w
  2244  023D  00AA               	movwf	(?___fttol+2)
  2245  023E  120A  118A  2739   	fcall	___fttol
              120A  118A         
  2246  0243  1283               	bcf	status, 5	;RP0=0, select bank0
  2247  0244  1303               	bcf	status, 6	;RP1=0, select bank0
  2248  0245  082B               	movf	(3+(?___fttol)),w
  2249  0246  1683               	bsf	status, 5	;RP0=1, select bank1
  2250  0247  1303               	bcf	status, 6	;RP1=0, select bank1
  2251  0248  00BC               	movwf	(lcd_putnumf@frac+3)^080h
  2252  0249  1283               	bcf	status, 5	;RP0=0, select bank0
  2253  024A  1303               	bcf	status, 6	;RP1=0, select bank0
  2254  024B  082A               	movf	(2+(?___fttol)),w
  2255  024C  1683               	bsf	status, 5	;RP0=1, select bank1
  2256  024D  1303               	bcf	status, 6	;RP1=0, select bank1
  2257  024E  00BB               	movwf	(lcd_putnumf@frac+2)^080h
  2258  024F  1283               	bcf	status, 5	;RP0=0, select bank0
  2259  0250  1303               	bcf	status, 6	;RP1=0, select bank0
  2260  0251  0829               	movf	(1+(?___fttol)),w
  2261  0252  1683               	bsf	status, 5	;RP0=1, select bank1
  2262  0253  1303               	bcf	status, 6	;RP1=0, select bank1
  2263  0254  00BA               	movwf	(lcd_putnumf@frac+1)^080h
  2264  0255  1283               	bcf	status, 5	;RP0=0, select bank0
  2265  0256  1303               	bcf	status, 6	;RP1=0, select bank0
  2266  0257  0828               	movf	(0+(?___fttol)),w
  2267  0258  1683               	bsf	status, 5	;RP0=1, select bank1
  2268  0259  1303               	bcf	status, 6	;RP1=0, select bank1
  2269  025A  00B9               	movwf	(lcd_putnumf@frac)^080h
  2270                           
  2271                           	line	253
  2272                           ;Untitled.c: 253: while (decimal_places > 0) {
  2273  025B  2ADB               	goto	l4538
  2274                           	
  2275  025C                     l772:	
  2276                           	line	254
  2277                           	
  2278  025C                     l4530:	
  2279                           ;Untitled.c: 254: buffer[i++] = (frac % 10) + '0';
  2280  025C  3000               	movlw	0
  2281  025D  1283               	bcf	status, 5	;RP0=0, select bank0
  2282  025E  00A3               	movwf	(?___llmod+3)
  2283  025F  3000               	movlw	0
  2284  0260  00A2               	movwf	(?___llmod+2)
  2285  0261  3000               	movlw	0
  2286  0262  00A1               	movwf	(?___llmod+1)
  2287  0263  300A               	movlw	0Ah
  2288  0264  00A0               	movwf	(?___llmod)
  2289                           
  2290  0265  1683               	bsf	status, 5	;RP0=1, select bank1
  2291  0266  1303               	bcf	status, 6	;RP1=0, select bank1
  2292  0267  083C               	movf	(lcd_putnumf@frac+3)^080h,w
  2293  0268  1283               	bcf	status, 5	;RP0=0, select bank0
  2294  0269  1303               	bcf	status, 6	;RP1=0, select bank0
  2295  026A  00A7               	movwf	3+(?___llmod)+04h
  2296  026B  1683               	bsf	status, 5	;RP0=1, select bank1
  2297  026C  1303               	bcf	status, 6	;RP1=0, select bank1
  2298  026D  083B               	movf	(lcd_putnumf@frac+2)^080h,w
  2299  026E  1283               	bcf	status, 5	;RP0=0, select bank0
  2300  026F  1303               	bcf	status, 6	;RP1=0, select bank0
  2301  0270  00A6               	movwf	2+(?___llmod)+04h
  2302  0271  1683               	bsf	status, 5	;RP0=1, select bank1
  2303  0272  1303               	bcf	status, 6	;RP1=0, select bank1
  2304  0273  083A               	movf	(lcd_putnumf@frac+1)^080h,w
  2305  0274  1283               	bcf	status, 5	;RP0=0, select bank0
  2306  0275  1303               	bcf	status, 6	;RP1=0, select bank0
  2307  0276  00A5               	movwf	1+(?___llmod)+04h
  2308  0277  1683               	bsf	status, 5	;RP0=1, select bank1
  2309  0278  1303               	bcf	status, 6	;RP1=0, select bank1
  2310  0279  0839               	movf	(lcd_putnumf@frac)^080h,w
  2311  027A  1283               	bcf	status, 5	;RP0=0, select bank0
  2312  027B  1303               	bcf	status, 6	;RP1=0, select bank0
  2313  027C  00A4               	movwf	0+(?___llmod)+04h
  2314                           
  2315  027D  120A  158A  249E   	fcall	___llmod
              120A  118A         
  2316  0282  1283               	bcf	status, 5	;RP0=0, select bank0
  2317  0283  1303               	bcf	status, 6	;RP1=0, select bank0
  2318  0284  0820               	movf	0+(((0+(?___llmod)))),w
  2319  0285  3E30               	addlw	030h
  2320  0286  00E0               	movwf	(??_lcd_putnumf+0)+0
  2321  0287  1683               	bsf	status, 5	;RP0=1, select bank1
  2322  0288  1303               	bcf	status, 6	;RP1=0, select bank1
  2323  0289  0843               	movf	(lcd_putnumf@i)^080h,w
  2324  028A  3EA0               	addlw	lcd_putnumf@buffer&0ffh
  2325  028B  0084               	movwf	fsr0
  2326  028C  1283               	bcf	status, 5	;RP0=0, select bank0
  2327  028D  1303               	bcf	status, 6	;RP1=0, select bank0
  2328  028E  0860               	movf	(??_lcd_putnumf+0)+0,w
  2329  028F  1383               	bcf	status, 7	;select IRP bank1
  2330  0290  0080               	movwf	indf
  2331                           	
  2332  0291                     l4532:	
  2333  0291  3001               	movlw	(01h)
  2334  0292  00E0               	movwf	(??_lcd_putnumf+0)+0
  2335  0293  0860               	movf	(??_lcd_putnumf+0)+0,w
  2336  0294  1683               	bsf	status, 5	;RP0=1, select bank1
  2337  0295  1303               	bcf	status, 6	;RP1=0, select bank1
  2338  0296  07C3               	addwf	(lcd_putnumf@i)^080h,f
  2339                           	line	255
  2340                           	
  2341  0297                     l4534:	
  2342                           ;Untitled.c: 255: frac /= 10;
  2343  0297  3000               	movlw	0
  2344  0298  1283               	bcf	status, 5	;RP0=0, select bank0
  2345  0299  1303               	bcf	status, 6	;RP1=0, select bank0
  2346  029A  00A3               	movwf	(?___lldiv+3)
  2347  029B  3000               	movlw	0
  2348  029C  00A2               	movwf	(?___lldiv+2)
  2349  029D  3000               	movlw	0
  2350  029E  00A1               	movwf	(?___lldiv+1)
  2351  029F  300A               	movlw	0Ah
  2352  02A0  00A0               	movwf	(?___lldiv)
  2353                           
  2354  02A1  1683               	bsf	status, 5	;RP0=1, select bank1
  2355  02A2  1303               	bcf	status, 6	;RP1=0, select bank1
  2356  02A3  083C               	movf	(lcd_putnumf@frac+3)^080h,w
  2357  02A4  1283               	bcf	status, 5	;RP0=0, select bank0
  2358  02A5  1303               	bcf	status, 6	;RP1=0, select bank0
  2359  02A6  00A7               	movwf	3+(?___lldiv)+04h
  2360  02A7  1683               	bsf	status, 5	;RP0=1, select bank1
  2361  02A8  1303               	bcf	status, 6	;RP1=0, select bank1
  2362  02A9  083B               	movf	(lcd_putnumf@frac+2)^080h,w
  2363  02AA  1283               	bcf	status, 5	;RP0=0, select bank0
  2364  02AB  1303               	bcf	status, 6	;RP1=0, select bank0
  2365  02AC  00A6               	movwf	2+(?___lldiv)+04h
  2366  02AD  1683               	bsf	status, 5	;RP0=1, select bank1
  2367  02AE  1303               	bcf	status, 6	;RP1=0, select bank1
  2368  02AF  083A               	movf	(lcd_putnumf@frac+1)^080h,w
  2369  02B0  1283               	bcf	status, 5	;RP0=0, select bank0
  2370  02B1  1303               	bcf	status, 6	;RP1=0, select bank0
  2371  02B2  00A5               	movwf	1+(?___lldiv)+04h
  2372  02B3  1683               	bsf	status, 5	;RP0=1, select bank1
  2373  02B4  1303               	bcf	status, 6	;RP1=0, select bank1
  2374  02B5  0839               	movf	(lcd_putnumf@frac)^080h,w
  2375  02B6  1283               	bcf	status, 5	;RP0=0, select bank0
  2376  02B7  1303               	bcf	status, 6	;RP1=0, select bank0
  2377  02B8  00A4               	movwf	0+(?___lldiv)+04h
  2378                           
  2379  02B9  120A  158A  24FC   	fcall	___lldiv
              120A  118A         
  2380  02BE  1283               	bcf	status, 5	;RP0=0, select bank0
  2381  02BF  1303               	bcf	status, 6	;RP1=0, select bank0
  2382  02C0  0823               	movf	(3+(?___lldiv)),w
  2383  02C1  1683               	bsf	status, 5	;RP0=1, select bank1
  2384  02C2  1303               	bcf	status, 6	;RP1=0, select bank1
  2385  02C3  00BC               	movwf	(lcd_putnumf@frac+3)^080h
  2386  02C4  1283               	bcf	status, 5	;RP0=0, select bank0
  2387  02C5  1303               	bcf	status, 6	;RP1=0, select bank0
  2388  02C6  0822               	movf	(2+(?___lldiv)),w
  2389  02C7  1683               	bsf	status, 5	;RP0=1, select bank1
  2390  02C8  1303               	bcf	status, 6	;RP1=0, select bank1
  2391  02C9  00BB               	movwf	(lcd_putnumf@frac+2)^080h
  2392  02CA  1283               	bcf	status, 5	;RP0=0, select bank0
  2393  02CB  1303               	bcf	status, 6	;RP1=0, select bank0
  2394  02CC  0821               	movf	(1+(?___lldiv)),w
  2395  02CD  1683               	bsf	status, 5	;RP0=1, select bank1
  2396  02CE  1303               	bcf	status, 6	;RP1=0, select bank1
  2397  02CF  00BA               	movwf	(lcd_putnumf@frac+1)^080h
  2398  02D0  1283               	bcf	status, 5	;RP0=0, select bank0
  2399  02D1  1303               	bcf	status, 6	;RP1=0, select bank0
  2400  02D2  0820               	movf	(0+(?___lldiv)),w
  2401  02D3  1683               	bsf	status, 5	;RP0=1, select bank1
  2402  02D4  1303               	bcf	status, 6	;RP1=0, select bank1
  2403  02D5  00B9               	movwf	(lcd_putnumf@frac)^080h
  2404                           
  2405                           	line	256
  2406                           	
  2407  02D6                     l4536:	
  2408                           ;Untitled.c: 256: decimal_places--;
  2409  02D6  3001               	movlw	low(01h)
  2410  02D7  1283               	bcf	status, 5	;RP0=0, select bank0
  2411  02D8  1303               	bcf	status, 6	;RP1=0, select bank0
  2412  02D9  02DF               	subwf	(lcd_putnumf@decimal_places),f
  2413  02DA  2ADB               	goto	l4538
  2414                           	line	257
  2415                           	
  2416  02DB                     l771:	
  2417                           	line	253
  2418                           	
  2419  02DB                     l4538:	
  2420  02DB  1283               	bcf	status, 5	;RP0=0, select bank0
  2421  02DC  08DF               	movf	(lcd_putnumf@decimal_places),f
  2422  02DD  1D03               	skipz
  2423  02DE  2AE0               	goto	u4681
  2424  02DF  2AE1               	goto	u4680
  2425  02E0                     u4681:
  2426  02E0  2A5C               	goto	l4530
  2427  02E1                     u4680:
  2428  02E1  2AE3               	goto	l4540
  2429                           	
  2430  02E2                     l773:	
  2431  02E2  2AE3               	goto	l4540
  2432                           	line	258
  2433                           	
  2434  02E3                     l767:	
  2435                           	line	261
  2436                           	
  2437  02E3                     l4540:	
  2438                           ;Untitled.c: 257: }
  2439                           ;Untitled.c: 258: }
  2440                           ;Untitled.c: 261: buffer[i] = '\0';
  2441  02E3  1683               	bsf	status, 5	;RP0=1, select bank1
  2442  02E4  1303               	bcf	status, 6	;RP1=0, select bank1
  2443  02E5  0843               	movf	(lcd_putnumf@i)^080h,w
  2444  02E6  3EA0               	addlw	lcd_putnumf@buffer&0ffh
  2445  02E7  0084               	movwf	fsr0
  2446  02E8  1383               	bcf	status, 7	;select IRP bank1
  2447  02E9  0180               	clrf	indf
  2448                           	line	262
  2449                           	
  2450  02EA                     l4542:	
  2451                           ;Untitled.c: 262: lcd_puts(buffer);
  2452  02EA  30A0               	movlw	(lcd_putnumf@buffer&0ffh)
  2453  02EB  1283               	bcf	status, 5	;RP0=0, select bank0
  2454  02EC  1303               	bcf	status, 6	;RP1=0, select bank0
  2455  02ED  00A8               	movwf	(?_lcd_puts)
  2456  02EE  3000               	movlw	(0x1/2)
  2457  02EF  00A9               	movwf	(?_lcd_puts+1)
  2458  02F0  120A  158A  2300   	fcall	_lcd_puts
              120A  118A         
  2459                           	line	263
  2460                           	
  2461  02F5                     l774:	
  2462  02F5  0008               	return
  2463                           	opt stack 0
  2464                           GLOBAL	__end_of_lcd_putnumf
  2465  02F6                     	__end_of_lcd_putnumf:
  2466 ;; =============== function _lcd_putnumf ends ============
  2467                           
  2468                           	signat	_lcd_putnumf,8312
  2469                           	global	_lcd_puts
  2470                           psect	text770,local,class=CODE,delta=2
  2471                           global __ptext770
  2472  0B00                     __ptext770:
  2473                           
  2474 ;; *************** function _lcd_puts *****************
  2475 ;; Defined at:
  2476 ;;		line 206 in file "C:\Users\may\OneDrive\WeiJi\Mplab_workspace\work_together1\Untitled.c"
  2477 ;; Parameters:    Size  Location     Type
  2478 ;;  str             2    8[BANK0 ] PTR const unsigned char 
  2479 ;;		 -> lcd_putnumf@buffer(16), STR_7(3), STR_6(8), STR_5(6), 
  2480 ;;		 -> STR_4(3), STR_3(8), STR_2(8), STR_1(6), 
  2481 ;; Auto vars:     Size  Location     Type
  2482 ;;		None
  2483 ;; Return value:  Size  Location     Type
  2484 ;;		None               void
  2485 ;; Registers used:
  2486 ;;		wreg, fsr0l, fsr0h, status,2, status,0, btemp+1, pclath, cstack
  2487 ;; Tracked objects:
  2488 ;;		On entry : 0/0
  2489 ;;		On exit  : 0/0
  2490 ;;		Unchanged: 0/0
  2491 ;; Data sizes:     COMMON   BANK0   BANK1   BANK3   BANK2
  2492 ;;      Params:         0       2       0       0       0
  2493 ;;      Locals:         0       0       0       0       0
  2494 ;;      Temps:          0       0       0       0       0
  2495 ;;      Totals:         0       2       0       0       0
  2496 ;;Total ram usage:        2 bytes
  2497 ;; Hardware stack levels used:    1
  2498 ;; Hardware stack levels required when called:    3
  2499 ;; This function calls:
  2500 ;;		_lcd_data
  2501 ;; This function is called by:
  2502 ;;		_main
  2503 ;;		_lcd_putnumf
  2504 ;; This function uses a non-reentrant model
  2505 ;;
  2506                           psect	text770
  2507                           	file	"C:\Users\may\OneDrive\WeiJi\Mplab_workspace\work_together1\Untitled.c"
  2508                           	line	206
  2509                           	global	__size_of_lcd_puts
  2510  002C                     	__size_of_lcd_puts	equ	__end_of_lcd_puts-_lcd_puts
  2511                           	
  2512  0B00                     _lcd_puts:	
  2513                           	opt	stack 3
  2514                           ; Regs used in _lcd_puts: [wreg-fsr0h+status,2+status,0+btemp+1+pclath+cstack]
  2515                           	line	207
  2516                           	
  2517  0B00                     l4474:	
  2518                           ;Untitled.c: 207: while (*str) {
  2519  0B00  2B1A               	goto	l4480
  2520                           	
  2521  0B01                     l751:	
  2522                           	line	208
  2523                           	
  2524  0B01                     l4476:	
  2525                           ;Untitled.c: 208: lcd_data(*str++);
  2526  0B01  1283               	bcf	status, 5	;RP0=0, select bank0
  2527  0B02  1303               	bcf	status, 6	;RP1=0, select bank0
  2528  0B03  0829               	movf	(lcd_puts@str+1),w
  2529  0B04  00FF               	movwf	btemp+1
  2530  0B05  0828               	movf	(lcd_puts@str),w
  2531  0B06  0084               	movwf	fsr0
  2532  0B07  120A  158A  2000   	fcall	stringtab
              120A  158A         
  2533  0B0C  120A  158A  26E8   	fcall	_lcd_data
              120A  158A         
  2534                           	
  2535  0B11                     l4478:	
  2536  0B11  3001               	movlw	low(01h)
  2537  0B12  1283               	bcf	status, 5	;RP0=0, select bank0
  2538  0B13  1303               	bcf	status, 6	;RP1=0, select bank0
  2539  0B14  07A8               	addwf	(lcd_puts@str),f
  2540  0B15  1803               	skipnc
  2541  0B16  0AA9               	incf	(lcd_puts@str+1),f
  2542  0B17  3000               	movlw	high(01h)
  2543  0B18  07A9               	addwf	(lcd_puts@str+1),f
  2544  0B19  2B1A               	goto	l4480
  2545                           	line	209
  2546                           	
  2547  0B1A                     l750:	
  2548                           	line	207
  2549                           	
  2550  0B1A                     l4480:	
  2551  0B1A  1283               	bcf	status, 5	;RP0=0, select bank0
  2552  0B1B  1303               	bcf	status, 6	;RP1=0, select bank0
  2553  0B1C  0829               	movf	(lcd_puts@str+1),w
  2554  0B1D  00FF               	movwf	btemp+1
  2555  0B1E  0828               	movf	(lcd_puts@str),w
  2556  0B1F  0084               	movwf	fsr0
  2557  0B20  120A  158A  2000   	fcall	stringtab
              120A  158A         
  2558  0B25  3800               	iorlw	0
  2559  0B26  1D03               	skipz
  2560  0B27  2B29               	goto	u4621
  2561  0B28  2B2A               	goto	u4620
  2562  0B29                     u4621:
  2563  0B29  2B01               	goto	l4476
  2564  0B2A                     u4620:
  2565  0B2A  2B2B               	goto	l753
  2566                           	
  2567  0B2B                     l752:	
  2568                           	line	210
  2569                           	
  2570  0B2B                     l753:	
  2571  0B2B  0008               	return
  2572                           	opt stack 0
  2573                           GLOBAL	__end_of_lcd_puts
  2574  0B2C                     	__end_of_lcd_puts:
  2575 ;; =============== function _lcd_puts ends ============
  2576                           
  2577                           	signat	_lcd_puts,4216
  2578                           	global	_lcd_clear
  2579                           psect	text771,local,class=CODE,delta=2
  2580                           global __ptext771
  2581  0AC9                     __ptext771:
  2582                           
  2583 ;; *************** function _lcd_clear *****************
  2584 ;; Defined at:
  2585 ;;		line 213 in file "C:\Users\may\OneDrive\WeiJi\Mplab_workspace\work_together1\Untitled.c"
  2586 ;; Parameters:    Size  Location     Type
  2587 ;;		None
  2588 ;; Auto vars:     Size  Location     Type
  2589 ;;		None
  2590 ;; Return value:  Size  Location     Type
  2591 ;;		None               void
  2592 ;; Registers used:
  2593 ;;		wreg, status,2, status,0, pclath, cstack
  2594 ;; Tracked objects:
  2595 ;;		On entry : 0/0
  2596 ;;		On exit  : 0/0
  2597 ;;		Unchanged: 0/0
  2598 ;; Data sizes:     COMMON   BANK0   BANK1   BANK3   BANK2
  2599 ;;      Params:         0       0       0       0       0
  2600 ;;      Locals:         0       0       0       0       0
  2601 ;;      Temps:          0       0       0       0       0
  2602 ;;      Totals:         0       0       0       0       0
  2603 ;;Total ram usage:        0 bytes
  2604 ;; Hardware stack levels used:    1
  2605 ;; Hardware stack levels required when called:    3
  2606 ;; This function calls:
  2607 ;;		_lcd_command
  2608 ;;		_delay_ms
  2609 ;; This function is called by:
  2610 ;;		_main
  2611 ;; This function uses a non-reentrant model
  2612 ;;
  2613                           psect	text771
  2614                           	file	"C:\Users\may\OneDrive\WeiJi\Mplab_workspace\work_together1\Untitled.c"
  2615                           	line	213
  2616                           	global	__size_of_lcd_clear
  2617  0012                     	__size_of_lcd_clear	equ	__end_of_lcd_clear-_lcd_clear
  2618                           	
  2619  0AC9                     _lcd_clear:	
  2620                           	opt	stack 4
  2621                           ; Regs used in _lcd_clear: [wreg+status,2+status,0+pclath+cstack]
  2622                           	line	214
  2623                           	
  2624  0AC9                     l4472:	
  2625                           ;Untitled.c: 214: lcd_command(0x01);
  2626  0AC9  3001               	movlw	(01h)
  2627  0ACA  120A  158A  2774   	fcall	_lcd_command
              120A  158A         
  2628                           	line	215
  2629                           ;Untitled.c: 215: delay_ms(2);
  2630  0ACF  3002               	movlw	low(02h)
  2631  0AD0  1283               	bcf	status, 5	;RP0=0, select bank0
  2632  0AD1  1303               	bcf	status, 6	;RP1=0, select bank0
  2633  0AD2  00A0               	movwf	(?_delay_ms)
  2634  0AD3  3000               	movlw	high(02h)
  2635  0AD4  00A1               	movwf	((?_delay_ms))+1
  2636  0AD5  120A  158A  232C   	fcall	_delay_ms
              120A  158A         
  2637                           	line	216
  2638                           	
  2639  0ADA                     l756:	
  2640  0ADA  0008               	return
  2641                           	opt stack 0
  2642                           GLOBAL	__end_of_lcd_clear
  2643  0ADB                     	__end_of_lcd_clear:
  2644 ;; =============== function _lcd_clear ends ============
  2645                           
  2646                           	signat	_lcd_clear,88
  2647                           	global	_set_pwm_frequency
  2648                           psect	text772,local,class=CODE,delta=2
  2649                           global __ptext772
  2650  0D6C                     __ptext772:
  2651                           
  2652 ;; *************** function _set_pwm_frequency *****************
  2653 ;; Defined at:
  2654 ;;		line 122 in file "C:\Users\may\OneDrive\WeiJi\Mplab_workspace\work_together1\Untitled.c"
  2655 ;; Parameters:    Size  Location     Type
  2656 ;;  freq            3   38[BANK0 ] float 
  2657 ;; Auto vars:     Size  Location     Type
  2658 ;;  interrupt_in    3   47[BANK0 ] float 
  2659 ;;  half_period     3   44[BANK0 ] float 
  2660 ;;  period          3   41[BANK0 ] float 
  2661 ;; Return value:  Size  Location     Type
  2662 ;;		None               void
  2663 ;; Registers used:
  2664 ;;		wreg, status,2, status,0, pclath, cstack
  2665 ;; Tracked objects:
  2666 ;;		On entry : 0/0
  2667 ;;		On exit  : 0/0
  2668 ;;		Unchanged: 0/0
  2669 ;; Data sizes:     COMMON   BANK0   BANK1   BANK3   BANK2
  2670 ;;      Params:         0       3       0       0       0
  2671 ;;      Locals:         0       9       0       0       0
  2672 ;;      Temps:          0       0       0       0       0
  2673 ;;      Totals:         0      12       0       0       0
  2674 ;;Total ram usage:       12 bytes
  2675 ;; Hardware stack levels used:    1
  2676 ;; Hardware stack levels required when called:    3
  2677 ;; This function calls:
  2678 ;;		___ftdiv
  2679 ;;		___fttol
  2680 ;; This function is called by:
  2681 ;;		_main
  2682 ;; This function uses a non-reentrant model
  2683 ;;
  2684                           psect	text772
  2685                           	file	"C:\Users\may\OneDrive\WeiJi\Mplab_workspace\work_together1\Untitled.c"
  2686                           	line	122
  2687                           	global	__size_of_set_pwm_frequency
  2688  0075                     	__size_of_set_pwm_frequency	equ	__end_of_set_pwm_frequency-_set_pwm_frequency
  2689                           	
  2690  0D6C                     _set_pwm_frequency:	
  2691                           	opt	stack 4
  2692                           ; Regs used in _set_pwm_frequency: [wreg+status,2+status,0+pclath+cstack]
  2693                           	line	123
  2694                           	
  2695  0D6C                     l4458:	
  2696                           ;Untitled.c: 123: if (freq == 0) {
  2697  0D6C  1283               	bcf	status, 5	;RP0=0, select bank0
  2698  0D6D  1303               	bcf	status, 6	;RP1=0, select bank0
  2699  0D6E  0848               	movf	(set_pwm_frequency@freq+2),w
  2700  0D6F  0447               	iorwf	(set_pwm_frequency@freq+1),w
  2701  0D70  0446               	iorwf	(set_pwm_frequency@freq),w
  2702  0D71  1D03               	skipz
  2703  0D72  2D74               	goto	u4611
  2704  0D73  2D75               	goto	u4610
  2705  0D74                     u4611:
  2706  0D74  2D80               	goto	l4466
  2707  0D75                     u4610:
  2708                           	line	124
  2709                           	
  2710  0D75                     l4460:	
  2711                           ;Untitled.c: 124: target_count = 0;
  2712  0D75  3000               	movlw	0
  2713  0D76  00E8               	movwf	(_target_count+3)	;volatile
  2714  0D77  3000               	movlw	0
  2715  0D78  00E7               	movwf	(_target_count+2)	;volatile
  2716  0D79  3000               	movlw	0
  2717  0D7A  00E6               	movwf	(_target_count+1)	;volatile
  2718  0D7B  3000               	movlw	0
  2719  0D7C  00E5               	movwf	(_target_count)	;volatile
  2720                           
  2721                           	line	125
  2722                           	
  2723  0D7D                     l4462:	
  2724                           ;Untitled.c: 125: PORTDbits.RD3 = 0;
  2725  0D7D  1188               	bcf	(8),3	;volatile
  2726  0D7E  2DE0               	goto	l730
  2727                           	line	126
  2728                           	
  2729  0D7F                     l4464:	
  2730                           ;Untitled.c: 126: return;
  2731  0D7F  2DE0               	goto	l730
  2732                           	line	127
  2733                           	
  2734  0D80                     l729:	
  2735                           	line	130
  2736                           	
  2737  0D80                     l4466:	
  2738                           ;Untitled.c: 127: }
  2739                           ;Untitled.c: 130: float period = 1.0 / freq;
  2740  0D80  0846               	movf	(set_pwm_frequency@freq),w
  2741  0D81  00B6               	movwf	(?___ftdiv)
  2742  0D82  0847               	movf	(set_pwm_frequency@freq+1),w
  2743  0D83  00B7               	movwf	(?___ftdiv+1)
  2744  0D84  0848               	movf	(set_pwm_frequency@freq+2),w
  2745  0D85  00B8               	movwf	(?___ftdiv+2)
  2746  0D86  3000               	movlw	0x0
  2747  0D87  00B9               	movwf	0+(?___ftdiv)+03h
  2748  0D88  3080               	movlw	0x80
  2749  0D89  00BA               	movwf	1+(?___ftdiv)+03h
  2750  0D8A  303F               	movlw	0x3f
  2751  0D8B  00BB               	movwf	2+(?___ftdiv)+03h
  2752  0D8C  120A  118A  2671   	fcall	___ftdiv
              120A  158A         
  2753  0D91  1283               	bcf	status, 5	;RP0=0, select bank0
  2754  0D92  1303               	bcf	status, 6	;RP1=0, select bank0
  2755  0D93  0836               	movf	(0+(?___ftdiv)),w
  2756  0D94  00C9               	movwf	(set_pwm_frequency@period)
  2757  0D95  0837               	movf	(1+(?___ftdiv)),w
  2758  0D96  00CA               	movwf	(set_pwm_frequency@period+1)
  2759  0D97  0838               	movf	(2+(?___ftdiv)),w
  2760  0D98  00CB               	movwf	(set_pwm_frequency@period+2)
  2761                           	line	131
  2762                           ;Untitled.c: 131: float half_period = period / 2.0;
  2763  0D99  3000               	movlw	0x0
  2764  0D9A  00B6               	movwf	(?___ftdiv)
  2765  0D9B  3000               	movlw	0x0
  2766  0D9C  00B7               	movwf	(?___ftdiv+1)
  2767  0D9D  3040               	movlw	0x40
  2768  0D9E  00B8               	movwf	(?___ftdiv+2)
  2769  0D9F  0849               	movf	(set_pwm_frequency@period),w
  2770  0DA0  00B9               	movwf	0+(?___ftdiv)+03h
  2771  0DA1  084A               	movf	(set_pwm_frequency@period+1),w
  2772  0DA2  00BA               	movwf	1+(?___ftdiv)+03h
  2773  0DA3  084B               	movf	(set_pwm_frequency@period+2),w
  2774  0DA4  00BB               	movwf	2+(?___ftdiv)+03h
  2775  0DA5  120A  118A  2671   	fcall	___ftdiv
              120A  158A         
  2776  0DAA  1283               	bcf	status, 5	;RP0=0, select bank0
  2777  0DAB  1303               	bcf	status, 6	;RP1=0, select bank0
  2778  0DAC  0836               	movf	(0+(?___ftdiv)),w
  2779  0DAD  00CC               	movwf	(set_pwm_frequency@half_period)
  2780  0DAE  0837               	movf	(1+(?___ftdiv)),w
  2781  0DAF  00CD               	movwf	(set_pwm_frequency@half_period+1)
  2782  0DB0  0838               	movf	(2+(?___ftdiv)),w
  2783  0DB1  00CE               	movwf	(set_pwm_frequency@half_period+2)
  2784                           	line	136
  2785                           	
  2786  0DB2                     l4468:	
  2787                           ;Untitled.c: 136: float interrupt_interval = 0.000065536;
  2788  0DB2  3070               	movlw	0x70
  2789  0DB3  00CF               	movwf	(set_pwm_frequency@interrupt_interval)
  2790  0DB4  3089               	movlw	0x89
  2791  0DB5  00D0               	movwf	(set_pwm_frequency@interrupt_interval+1)
  2792  0DB6  3038               	movlw	0x38
  2793  0DB7  00D1               	movwf	(set_pwm_frequency@interrupt_interval+2)
  2794                           	line	137
  2795                           	
  2796  0DB8                     l4470:	
  2797                           ;Untitled.c: 137: target_count = (unsigned long)(half_period / interrupt_interval);
  2798  0DB8  084C               	movf	(set_pwm_frequency@half_period),w
  2799  0DB9  00B9               	movwf	0+(?___ftdiv)+03h
  2800  0DBA  084D               	movf	(set_pwm_frequency@half_period+1),w
  2801  0DBB  00BA               	movwf	1+(?___ftdiv)+03h
  2802  0DBC  084E               	movf	(set_pwm_frequency@half_period+2),w
  2803  0DBD  00BB               	movwf	2+(?___ftdiv)+03h
  2804  0DBE  084F               	movf	(set_pwm_frequency@interrupt_interval),w
  2805  0DBF  00B6               	movwf	(?___ftdiv)
  2806  0DC0  0850               	movf	(set_pwm_frequency@interrupt_interval+1),w
  2807  0DC1  00B7               	movwf	(?___ftdiv+1)
  2808  0DC2  0851               	movf	(set_pwm_frequency@interrupt_interval+2),w
  2809  0DC3  00B8               	movwf	(?___ftdiv+2)
  2810  0DC4  120A  118A  2671   	fcall	___ftdiv
              120A  158A         
  2811  0DC9  1283               	bcf	status, 5	;RP0=0, select bank0
  2812  0DCA  1303               	bcf	status, 6	;RP1=0, select bank0
  2813  0DCB  0836               	movf	(0+(?___ftdiv)),w
  2814  0DCC  00A8               	movwf	(?___fttol)
  2815  0DCD  0837               	movf	(1+(?___ftdiv)),w
  2816  0DCE  00A9               	movwf	(?___fttol+1)
  2817  0DCF  0838               	movf	(2+(?___ftdiv)),w
  2818  0DD0  00AA               	movwf	(?___fttol+2)
  2819  0DD1  120A  118A  2739   	fcall	___fttol
              120A  158A         
  2820  0DD6  1283               	bcf	status, 5	;RP0=0, select bank0
  2821  0DD7  1303               	bcf	status, 6	;RP1=0, select bank0
  2822  0DD8  082B               	movf	(3+(?___fttol)),w
  2823  0DD9  00E8               	movwf	(_target_count+3)	;volatile
  2824  0DDA  082A               	movf	(2+(?___fttol)),w
  2825  0DDB  00E7               	movwf	(_target_count+2)	;volatile
  2826  0DDC  0829               	movf	(1+(?___fttol)),w
  2827  0DDD  00E6               	movwf	(_target_count+1)	;volatile
  2828  0DDE  0828               	movf	(0+(?___fttol)),w
  2829  0DDF  00E5               	movwf	(_target_count)	;volatile
  2830                           
  2831                           	line	138
  2832                           	
  2833  0DE0                     l730:	
  2834  0DE0  0008               	return
  2835                           	opt stack 0
  2836                           GLOBAL	__end_of_set_pwm_frequency
  2837  0DE1                     	__end_of_set_pwm_frequency:
  2838 ;; =============== function _set_pwm_frequency ends ============
  2839                           
  2840                           	signat	_set_pwm_frequency,4216
  2841                           	global	_lcd_init
  2842                           psect	text773,local,class=CODE,delta=2
  2843                           global __ptext773
  2844  0B60                     __ptext773:
  2845                           
  2846 ;; *************** function _lcd_init *****************
  2847 ;; Defined at:
  2848 ;;		line 149 in file "C:\Users\may\OneDrive\WeiJi\Mplab_workspace\work_together1\Untitled.c"
  2849 ;; Parameters:    Size  Location     Type
  2850 ;;		None
  2851 ;; Auto vars:     Size  Location     Type
  2852 ;;		None
  2853 ;; Return value:  Size  Location     Type
  2854 ;;		None               void
  2855 ;; Registers used:
  2856 ;;		wreg, status,2, status,0, pclath, cstack
  2857 ;; Tracked objects:
  2858 ;;		On entry : 0/0
  2859 ;;		On exit  : 0/0
  2860 ;;		Unchanged: 0/0
  2861 ;; Data sizes:     COMMON   BANK0   BANK1   BANK3   BANK2
  2862 ;;      Params:         0       0       0       0       0
  2863 ;;      Locals:         0       0       0       0       0
  2864 ;;      Temps:          0       0       0       0       0
  2865 ;;      Totals:         0       0       0       0       0
  2866 ;;Total ram usage:        0 bytes
  2867 ;; Hardware stack levels used:    1
  2868 ;; Hardware stack levels required when called:    3
  2869 ;; This function calls:
  2870 ;;		_delay_ms
  2871 ;;		_lcd_command
  2872 ;; This function is called by:
  2873 ;;		_main
  2874 ;; This function uses a non-reentrant model
  2875 ;;
  2876                           psect	text773
  2877                           	file	"C:\Users\may\OneDrive\WeiJi\Mplab_workspace\work_together1\Untitled.c"
  2878                           	line	149
  2879                           	global	__size_of_lcd_init
  2880  0035                     	__size_of_lcd_init	equ	__end_of_lcd_init-_lcd_init
  2881                           	
  2882  0B60                     _lcd_init:	
  2883                           	opt	stack 4
  2884                           ; Regs used in _lcd_init: [wreg+status,2+status,0+pclath+cstack]
  2885                           	line	150
  2886                           	
  2887  0B60                     l4456:	
  2888                           ;Untitled.c: 150: delay_ms(50);
  2889  0B60  3032               	movlw	low(032h)
  2890  0B61  1283               	bcf	status, 5	;RP0=0, select bank0
  2891  0B62  1303               	bcf	status, 6	;RP1=0, select bank0
  2892  0B63  00A0               	movwf	(?_delay_ms)
  2893  0B64  3000               	movlw	high(032h)
  2894  0B65  00A1               	movwf	((?_delay_ms))+1
  2895  0B66  120A  158A  232C   	fcall	_delay_ms
              120A  158A         
  2896                           	line	151
  2897                           ;Untitled.c: 151: lcd_command(0x02);
  2898  0B6B  3002               	movlw	(02h)
  2899  0B6C  120A  158A  2774   	fcall	_lcd_command
              120A  158A         
  2900                           	line	152
  2901                           ;Untitled.c: 152: lcd_command(0x28);
  2902  0B71  3028               	movlw	(028h)
  2903  0B72  120A  158A  2774   	fcall	_lcd_command
              120A  158A         
  2904                           	line	153
  2905                           ;Untitled.c: 153: lcd_command(0x0C);
  2906  0B77  300C               	movlw	(0Ch)
  2907  0B78  120A  158A  2774   	fcall	_lcd_command
              120A  158A         
  2908                           	line	154
  2909                           ;Untitled.c: 154: lcd_command(0x06);
  2910  0B7D  3006               	movlw	(06h)
  2911  0B7E  120A  158A  2774   	fcall	_lcd_command
              120A  158A         
  2912                           	line	155
  2913                           ;Untitled.c: 155: lcd_command(0x01);
  2914  0B83  3001               	movlw	(01h)
  2915  0B84  120A  158A  2774   	fcall	_lcd_command
              120A  158A         
  2916                           	line	156
  2917                           ;Untitled.c: 156: delay_ms(2);
  2918  0B89  3002               	movlw	low(02h)
  2919  0B8A  1283               	bcf	status, 5	;RP0=0, select bank0
  2920  0B8B  1303               	bcf	status, 6	;RP1=0, select bank0
  2921  0B8C  00A0               	movwf	(?_delay_ms)
  2922  0B8D  3000               	movlw	high(02h)
  2923  0B8E  00A1               	movwf	((?_delay_ms))+1
  2924  0B8F  120A  158A  232C   	fcall	_delay_ms
              120A  158A         
  2925                           	line	157
  2926                           	
  2927  0B94                     l741:	
  2928  0B94  0008               	return
  2929                           	opt stack 0
  2930                           GLOBAL	__end_of_lcd_init
  2931  0B95                     	__end_of_lcd_init:
  2932 ;; =============== function _lcd_init ends ============
  2933                           
  2934                           	signat	_lcd_init,88
  2935                           	global	_lcd_putc
  2936                           psect	text774,local,class=CODE,delta=2
  2937                           global __ptext774
  2938  0AA1                     __ptext774:
  2939                           
  2940 ;; *************** function _lcd_putc *****************
  2941 ;; Defined at:
  2942 ;;		line 48 in file "C:\Users\may\OneDrive\WeiJi\Mplab_workspace\work_together1\Untitled.c"
  2943 ;; Parameters:    Size  Location     Type
  2944 ;;  c               1    wreg     unsigned char 
  2945 ;; Auto vars:     Size  Location     Type
  2946 ;;  c               1    8[BANK0 ] unsigned char 
  2947 ;; Return value:  Size  Location     Type
  2948 ;;		None               void
  2949 ;; Registers used:
  2950 ;;		wreg, status,2, status,0, pclath, cstack
  2951 ;; Tracked objects:
  2952 ;;		On entry : 0/0
  2953 ;;		On exit  : 0/0
  2954 ;;		Unchanged: 0/0
  2955 ;; Data sizes:     COMMON   BANK0   BANK1   BANK3   BANK2
  2956 ;;      Params:         0       0       0       0       0
  2957 ;;      Locals:         0       1       0       0       0
  2958 ;;      Temps:          0       0       0       0       0
  2959 ;;      Totals:         0       1       0       0       0
  2960 ;;Total ram usage:        1 bytes
  2961 ;; Hardware stack levels used:    1
  2962 ;; Hardware stack levels required when called:    3
  2963 ;; This function calls:
  2964 ;;		_lcd_data
  2965 ;; This function is called by:
  2966 ;;		_main
  2967 ;; This function uses a non-reentrant model
  2968 ;;
  2969                           psect	text774
  2970                           	file	"C:\Users\may\OneDrive\WeiJi\Mplab_workspace\work_together1\Untitled.c"
  2971                           	line	48
  2972                           	global	__size_of_lcd_putc
  2973  000A                     	__size_of_lcd_putc	equ	__end_of_lcd_putc-_lcd_putc
  2974                           	
  2975  0AA1                     _lcd_putc:	
  2976                           	opt	stack 4
  2977                           ; Regs used in _lcd_putc: [wreg+status,2+status,0+pclath+cstack]
  2978                           ;lcd_putc@c stored from wreg
  2979  0AA1  1283               	bcf	status, 5	;RP0=0, select bank0
  2980  0AA2  1303               	bcf	status, 6	;RP1=0, select bank0
  2981  0AA3  00A8               	movwf	(lcd_putc@c)
  2982                           	line	49
  2983                           	
  2984  0AA4                     l4454:	
  2985                           ;Untitled.c: 49: lcd_data(c);
  2986  0AA4  0828               	movf	(lcd_putc@c),w
  2987  0AA5  120A  158A  26E8   	fcall	_lcd_data
              120A  158A         
  2988                           	line	50
  2989                           	
  2990  0AAA                     l711:	
  2991  0AAA  0008               	return
  2992                           	opt stack 0
  2993                           GLOBAL	__end_of_lcd_putc
  2994  0AAB                     	__end_of_lcd_putc:
  2995 ;; =============== function _lcd_putc ends ============
  2996                           
  2997                           	signat	_lcd_putc,4216
  2998                           	global	___lltoft
  2999                           psect	text775,local,class=CODE,delta=2
  3000                           global __ptext775
  3001  0B95                     __ptext775:
  3002                           
  3003 ;; *************** function ___lltoft *****************
  3004 ;; Defined at:
  3005 ;;		line 36 in file "C:\Program Files (x86)\HI-TECH Software\PICC\9.82\sources\lltoft.c"
  3006 ;; Parameters:    Size  Location     Type
  3007 ;;  c               4   25[BANK0 ] unsigned long 
  3008 ;; Auto vars:     Size  Location     Type
  3009 ;;  exp             1   30[BANK0 ] unsigned char 
  3010 ;; Return value:  Size  Location     Type
  3011 ;;                  3   25[BANK0 ] float 
  3012 ;; Registers used:
  3013 ;;		wreg, status,2, status,0, pclath, cstack
  3014 ;; Tracked objects:
  3015 ;;		On entry : 0/0
  3016 ;;		On exit  : 0/0
  3017 ;;		Unchanged: 0/0
  3018 ;; Data sizes:     COMMON   BANK0   BANK1   BANK3   BANK2
  3019 ;;      Params:         0       4       0       0       0
  3020 ;;      Locals:         0       1       0       0       0
  3021 ;;      Temps:          0       1       0       0       0
  3022 ;;      Totals:         0       6       0       0       0
  3023 ;;Total ram usage:        6 bytes
  3024 ;; Hardware stack levels used:    1
  3025 ;; Hardware stack levels required when called:    2
  3026 ;; This function calls:
  3027 ;;		___ftpack
  3028 ;; This function is called by:
  3029 ;;		_lcd_putnumf
  3030 ;; This function uses a non-reentrant model
  3031 ;;
  3032                           psect	text775
  3033                           	file	"C:\Program Files (x86)\HI-TECH Software\PICC\9.82\sources\lltoft.c"
  3034                           	line	36
  3035                           	global	__size_of___lltoft
  3036  0036                     	__size_of___lltoft	equ	__end_of___lltoft-___lltoft
  3037                           	
  3038  0B95                     ___lltoft:	
  3039                           	opt	stack 4
  3040                           ; Regs used in ___lltoft: [wreg+status,2+status,0+pclath+cstack]
  3041                           	line	38
  3042                           	
  3043  0B95                     l4444:	
  3044  0B95  308E               	movlw	(08Eh)
  3045  0B96  1283               	bcf	status, 5	;RP0=0, select bank0
  3046  0B97  1303               	bcf	status, 6	;RP1=0, select bank0
  3047  0B98  00BD               	movwf	(??___lltoft+0)+0
  3048  0B99  083D               	movf	(??___lltoft+0)+0,w
  3049  0B9A  00BE               	movwf	(___lltoft@exp)
  3050                           	line	41
  3051  0B9B  2BAA               	goto	l4448
  3052                           	
  3053  0B9C                     l1712:	
  3054                           	line	42
  3055                           	
  3056  0B9C                     l4446:	
  3057  0B9C  3001               	movlw	01h
  3058  0B9D                     u4595:
  3059  0B9D  1003               	clrc
  3060  0B9E  0CBC               	rrf	(___lltoft@c+3),f
  3061  0B9F  0CBB               	rrf	(___lltoft@c+2),f
  3062  0BA0  0CBA               	rrf	(___lltoft@c+1),f
  3063  0BA1  0CB9               	rrf	(___lltoft@c),f
  3064  0BA2  3EFF               	addlw	-1
  3065  0BA3  1D03               	skipz
  3066  0BA4  2B9D               	goto	u4595
  3067                           
  3068                           	line	43
  3069  0BA5  3001               	movlw	(01h)
  3070  0BA6  00BD               	movwf	(??___lltoft+0)+0
  3071  0BA7  083D               	movf	(??___lltoft+0)+0,w
  3072  0BA8  07BE               	addwf	(___lltoft@exp),f
  3073  0BA9  2BAA               	goto	l4448
  3074                           	line	44
  3075                           	
  3076  0BAA                     l1711:	
  3077                           	line	41
  3078                           	
  3079  0BAA                     l4448:	
  3080  0BAA  30FF               	movlw	high highword(-16777216)
  3081  0BAB  053C               	andwf	(___lltoft@c+3),w
  3082  0BAC  1D03               	btfss	status,2
  3083  0BAD  2BAF               	goto	u4601
  3084  0BAE  2BB0               	goto	u4600
  3085  0BAF                     u4601:
  3086  0BAF  2B9C               	goto	l4446
  3087  0BB0                     u4600:
  3088  0BB0  2BB1               	goto	l4450
  3089                           	
  3090  0BB1                     l1713:	
  3091                           	line	45
  3092                           	
  3093  0BB1                     l4450:	
  3094  0BB1  0839               	movf	(___lltoft@c),w
  3095  0BB2  00A0               	movwf	(?___ftpack)
  3096  0BB3  083A               	movf	(___lltoft@c+1),w
  3097  0BB4  00A1               	movwf	(?___ftpack+1)
  3098  0BB5  083B               	movf	(___lltoft@c+2),w
  3099  0BB6  00A2               	movwf	(?___ftpack+2)
  3100  0BB7  083E               	movf	(___lltoft@exp),w
  3101  0BB8  00BD               	movwf	(??___lltoft+0)+0
  3102  0BB9  083D               	movf	(??___lltoft+0)+0,w
  3103  0BBA  00A3               	movwf	0+(?___ftpack)+03h
  3104  0BBB  01A4               	clrf	0+(?___ftpack)+04h
  3105  0BBC  120A  158A  25E1   	fcall	___ftpack
              120A  158A         
  3106  0BC1  1283               	bcf	status, 5	;RP0=0, select bank0
  3107  0BC2  1303               	bcf	status, 6	;RP1=0, select bank0
  3108  0BC3  0820               	movf	(0+(?___ftpack)),w
  3109  0BC4  00B9               	movwf	(?___lltoft)
  3110  0BC5  0821               	movf	(1+(?___ftpack)),w
  3111  0BC6  00BA               	movwf	(?___lltoft+1)
  3112  0BC7  0822               	movf	(2+(?___ftpack)),w
  3113  0BC8  00BB               	movwf	(?___lltoft+2)
  3114  0BC9  2BCA               	goto	l1714
  3115                           	
  3116  0BCA                     l4452:	
  3117                           	line	46
  3118                           	
  3119  0BCA                     l1714:	
  3120  0BCA  0008               	return
  3121                           	opt stack 0
  3122                           GLOBAL	__end_of___lltoft
  3123  0BCB                     	__end_of___lltoft:
  3124 ;; =============== function ___lltoft ends ============
  3125                           
  3126                           	signat	___lltoft,4219
  3127                           	global	___ftmul
  3128                           psect	text776,local,class=CODE,delta=2
  3129                           global __ptext776
  3130  0583                     __ptext776:
  3131                           
  3132 ;; *************** function ___ftmul *****************
  3133 ;; Defined at:
  3134 ;;		line 52 in file "C:\Program Files (x86)\HI-TECH Software\PICC\9.82\sources\ftmul.c"
  3135 ;; Parameters:    Size  Location     Type
  3136 ;;  f1              3   31[BANK0 ] float 
  3137 ;;  f2              3   34[BANK0 ] float 
  3138 ;; Auto vars:     Size  Location     Type
  3139 ;;  f3_as_produc    3   42[BANK0 ] unsigned um
  3140 ;;  sign            1   46[BANK0 ] unsigned char 
  3141 ;;  cntr            1   45[BANK0 ] unsigned char 
  3142 ;;  exp             1   41[BANK0 ] unsigned char 
  3143 ;; Return value:  Size  Location     Type
  3144 ;;                  3   31[BANK0 ] float 
  3145 ;; Registers used:
  3146 ;;		wreg, status,2, status,0, pclath, cstack
  3147 ;; Tracked objects:
  3148 ;;		On entry : 0/0
  3149 ;;		On exit  : 0/0
  3150 ;;		Unchanged: 0/0
  3151 ;; Data sizes:     COMMON   BANK0   BANK1   BANK3   BANK2
  3152 ;;      Params:         0       6       0       0       0
  3153 ;;      Locals:         0       6       0       0       0
  3154 ;;      Temps:          0       4       0       0       0
  3155 ;;      Totals:         0      16       0       0       0
  3156 ;;Total ram usage:       16 bytes
  3157 ;; Hardware stack levels used:    1
  3158 ;; Hardware stack levels required when called:    2
  3159 ;; This function calls:
  3160 ;;		___ftpack
  3161 ;; This function is called by:
  3162 ;;		_lcd_putnumf
  3163 ;; This function uses a non-reentrant model
  3164 ;;
  3165                           psect	text776
  3166                           	file	"C:\Program Files (x86)\HI-TECH Software\PICC\9.82\sources\ftmul.c"
  3167                           	line	52
  3168                           	global	__size_of___ftmul
  3169  00EE                     	__size_of___ftmul	equ	__end_of___ftmul-___ftmul
  3170                           	
  3171  0583                     ___ftmul:	
  3172                           	opt	stack 4
  3173                           ; Regs used in ___ftmul: [wreg+status,2+status,0+pclath+cstack]
  3174                           	line	56
  3175                           	
  3176  0583                     l4394:	
  3177  0583  1283               	bcf	status, 5	;RP0=0, select bank0
  3178  0584  1303               	bcf	status, 6	;RP1=0, select bank0
  3179  0585  083F               	movf	(___ftmul@f1),w
  3180  0586  00C5               	movwf	((??___ftmul+0)+0)
  3181  0587  0840               	movf	(___ftmul@f1+1),w
  3182  0588  00C6               	movwf	((??___ftmul+0)+0+1)
  3183  0589  0841               	movf	(___ftmul@f1+2),w
  3184  058A  00C7               	movwf	((??___ftmul+0)+0+2)
  3185  058B  1003               	clrc
  3186  058C  0D46               	rlf	(??___ftmul+0)+1,w
  3187  058D  0D47               	rlf	(??___ftmul+0)+2,w
  3188  058E  00C8               	movwf	(??___ftmul+3)+0
  3189  058F  0848               	movf	(??___ftmul+3)+0,w
  3190  0590  00C9               	movwf	(___ftmul@exp)
  3191  0591  08C9               	movf	((___ftmul@exp)),f
  3192  0592  1D03               	skipz
  3193  0593  2D95               	goto	u4451
  3194  0594  2D96               	goto	u4450
  3195  0595                     u4451:
  3196  0595  2D9E               	goto	l4400
  3197  0596                     u4450:
  3198                           	line	57
  3199                           	
  3200  0596                     l4396:	
  3201  0596  3000               	movlw	0x0
  3202  0597  00BF               	movwf	(?___ftmul)
  3203  0598  3000               	movlw	0x0
  3204  0599  00C0               	movwf	(?___ftmul+1)
  3205  059A  3000               	movlw	0x0
  3206  059B  00C1               	movwf	(?___ftmul+2)
  3207  059C  2E70               	goto	l1573
  3208                           	
  3209  059D                     l4398:	
  3210  059D  2E70               	goto	l1573
  3211                           	
  3212  059E                     l1572:	
  3213                           	line	58
  3214                           	
  3215  059E                     l4400:	
  3216  059E  0842               	movf	(___ftmul@f2),w
  3217  059F  00C5               	movwf	((??___ftmul+0)+0)
  3218  05A0  0843               	movf	(___ftmul@f2+1),w
  3219  05A1  00C6               	movwf	((??___ftmul+0)+0+1)
  3220  05A2  0844               	movf	(___ftmul@f2+2),w
  3221  05A3  00C7               	movwf	((??___ftmul+0)+0+2)
  3222  05A4  1003               	clrc
  3223  05A5  0D46               	rlf	(??___ftmul+0)+1,w
  3224  05A6  0D47               	rlf	(??___ftmul+0)+2,w
  3225  05A7  00C8               	movwf	(??___ftmul+3)+0
  3226  05A8  0848               	movf	(??___ftmul+3)+0,w
  3227  05A9  00CE               	movwf	(___ftmul@sign)
  3228  05AA  08CE               	movf	((___ftmul@sign)),f
  3229  05AB  1D03               	skipz
  3230  05AC  2DAE               	goto	u4461
  3231  05AD  2DAF               	goto	u4460
  3232  05AE                     u4461:
  3233  05AE  2DB7               	goto	l4406
  3234  05AF                     u4460:
  3235                           	line	59
  3236                           	
  3237  05AF                     l4402:	
  3238  05AF  3000               	movlw	0x0
  3239  05B0  00BF               	movwf	(?___ftmul)
  3240  05B1  3000               	movlw	0x0
  3241  05B2  00C0               	movwf	(?___ftmul+1)
  3242  05B3  3000               	movlw	0x0
  3243  05B4  00C1               	movwf	(?___ftmul+2)
  3244  05B5  2E70               	goto	l1573
  3245                           	
  3246  05B6                     l4404:	
  3247  05B6  2E70               	goto	l1573
  3248                           	
  3249  05B7                     l1574:	
  3250                           	line	60
  3251                           	
  3252  05B7                     l4406:	
  3253  05B7  084E               	movf	(___ftmul@sign),w
  3254  05B8  3E7B               	addlw	07Bh
  3255  05B9  00C5               	movwf	(??___ftmul+0)+0
  3256  05BA  0845               	movf	(??___ftmul+0)+0,w
  3257  05BB  07C9               	addwf	(___ftmul@exp),f
  3258                           	line	61
  3259  05BC  083F               	movf	(___ftmul@f1),w
  3260  05BD  00C5               	movwf	((??___ftmul+0)+0)
  3261  05BE  0840               	movf	(___ftmul@f1+1),w
  3262  05BF  00C6               	movwf	((??___ftmul+0)+0+1)
  3263  05C0  0841               	movf	(___ftmul@f1+2),w
  3264  05C1  00C7               	movwf	((??___ftmul+0)+0+2)
  3265  05C2  3010               	movlw	010h
  3266  05C3                     u4475:
  3267  05C3  1003               	clrc
  3268  05C4  0CC7               	rrf	(??___ftmul+0)+2,f
  3269  05C5  0CC6               	rrf	(??___ftmul+0)+1,f
  3270  05C6  0CC5               	rrf	(??___ftmul+0)+0,f
  3271  05C7                     u4470:
  3272  05C7  3EFF               	addlw	-1
  3273  05C8  1D03               	skipz
  3274  05C9  2DC3               	goto	u4475
  3275  05CA  0845               	movf	0+(??___ftmul+0)+0,w
  3276  05CB  00C8               	movwf	(??___ftmul+3)+0
  3277  05CC  0848               	movf	(??___ftmul+3)+0,w
  3278  05CD  00CE               	movwf	(___ftmul@sign)
  3279                           	line	62
  3280  05CE  0842               	movf	(___ftmul@f2),w
  3281  05CF  00C5               	movwf	((??___ftmul+0)+0)
  3282  05D0  0843               	movf	(___ftmul@f2+1),w
  3283  05D1  00C6               	movwf	((??___ftmul+0)+0+1)
  3284  05D2  0844               	movf	(___ftmul@f2+2),w
  3285  05D3  00C7               	movwf	((??___ftmul+0)+0+2)
  3286  05D4  3010               	movlw	010h
  3287  05D5                     u4485:
  3288  05D5  1003               	clrc
  3289  05D6  0CC7               	rrf	(??___ftmul+0)+2,f
  3290  05D7  0CC6               	rrf	(??___ftmul+0)+1,f
  3291  05D8  0CC5               	rrf	(??___ftmul+0)+0,f
  3292  05D9                     u4480:
  3293  05D9  3EFF               	addlw	-1
  3294  05DA  1D03               	skipz
  3295  05DB  2DD5               	goto	u4485
  3296  05DC  0845               	movf	0+(??___ftmul+0)+0,w
  3297  05DD  00C8               	movwf	(??___ftmul+3)+0
  3298  05DE  0848               	movf	(??___ftmul+3)+0,w
  3299  05DF  06CE               	xorwf	(___ftmul@sign),f
  3300                           	line	63
  3301  05E0  3080               	movlw	(080h)
  3302  05E1  00C5               	movwf	(??___ftmul+0)+0
  3303  05E2  0845               	movf	(??___ftmul+0)+0,w
  3304  05E3  05CE               	andwf	(___ftmul@sign),f
  3305                           	line	64
  3306                           	
  3307  05E4                     l4408:	
  3308  05E4  17C0               	bsf	(___ftmul@f1)+(15/8),(15)&7
  3309                           	line	66
  3310                           	
  3311  05E5                     l4410:	
  3312  05E5  17C3               	bsf	(___ftmul@f2)+(15/8),(15)&7
  3313                           	line	67
  3314                           	
  3315  05E6                     l4412:	
  3316  05E6  30FF               	movlw	0FFh
  3317  05E7  05C2               	andwf	(___ftmul@f2),f
  3318  05E8  30FF               	movlw	0FFh
  3319  05E9  05C3               	andwf	(___ftmul@f2+1),f
  3320  05EA  3000               	movlw	0
  3321  05EB  05C4               	andwf	(___ftmul@f2+2),f
  3322                           	line	68
  3323                           	
  3324  05EC                     l4414:	
  3325  05EC  3000               	movlw	0
  3326  05ED  00CA               	movwf	(___ftmul@f3_as_product)
  3327  05EE  3000               	movlw	0
  3328  05EF  00CB               	movwf	(___ftmul@f3_as_product+1)
  3329  05F0  3000               	movlw	0
  3330  05F1  00CC               	movwf	(___ftmul@f3_as_product+2)
  3331                           	line	69
  3332                           	
  3333  05F2                     l4416:	
  3334  05F2  3007               	movlw	(07h)
  3335  05F3  00C5               	movwf	(??___ftmul+0)+0
  3336  05F4  0845               	movf	(??___ftmul+0)+0,w
  3337  05F5  00CD               	movwf	(___ftmul@cntr)
  3338  05F6  2DF7               	goto	l4418
  3339                           	line	70
  3340                           	
  3341  05F7                     l1575:	
  3342                           	line	71
  3343                           	
  3344  05F7                     l4418:	
  3345  05F7  1C3F               	btfss	(___ftmul@f1),(0)&7
  3346  05F8  2DFA               	goto	u4491
  3347  05F9  2DFB               	goto	u4490
  3348  05FA                     u4491:
  3349  05FA  2E0C               	goto	l4422
  3350  05FB                     u4490:
  3351                           	line	72
  3352                           	
  3353  05FB                     l4420:	
  3354  05FB  0842               	movf	(___ftmul@f2),w
  3355  05FC  07CA               	addwf	(___ftmul@f3_as_product),f
  3356  05FD  0843               	movf	(___ftmul@f2+1),w
  3357  05FE  1103               	clrz
  3358  05FF  1803               	skipnc
  3359  0600  0A43               	incf	(___ftmul@f2+1),w
  3360  0601  1903               	skipnz
  3361  0602  2E04               	goto	u4501
  3362  0603  07CB               	addwf	(___ftmul@f3_as_product+1),f
  3363  0604                     u4501:
  3364  0604  0844               	movf	(___ftmul@f2+2),w
  3365  0605  1103               	clrz
  3366  0606  1803               	skipnc
  3367  0607  0A44               	incf	(___ftmul@f2+2),w
  3368  0608  1903               	skipnz
  3369  0609  2E0B               	goto	u4502
  3370  060A  07CC               	addwf	(___ftmul@f3_as_product+2),f
  3371  060B                     u4502:
  3372                           
  3373  060B  2E0C               	goto	l4422
  3374                           	
  3375  060C                     l1576:	
  3376                           	line	73
  3377                           	
  3378  060C                     l4422:	
  3379  060C  3001               	movlw	01h
  3380  060D                     u4515:
  3381  060D  1003               	clrc
  3382  060E  0CC1               	rrf	(___ftmul@f1+2),f
  3383  060F  0CC0               	rrf	(___ftmul@f1+1),f
  3384  0610  0CBF               	rrf	(___ftmul@f1),f
  3385  0611  3EFF               	addlw	-1
  3386  0612  1D03               	skipz
  3387  0613  2E0D               	goto	u4515
  3388                           
  3389                           	line	74
  3390                           	
  3391  0614                     l4424:	
  3392  0614  3001               	movlw	01h
  3393  0615                     u4525:
  3394  0615  1003               	clrc
  3395  0616  0DC2               	rlf	(___ftmul@f2),f
  3396  0617  0DC3               	rlf	(___ftmul@f2+1),f
  3397  0618  0DC4               	rlf	(___ftmul@f2+2),f
  3398  0619  3EFF               	addlw	-1
  3399  061A  1D03               	skipz
  3400  061B  2E15               	goto	u4525
  3401                           	line	75
  3402                           	
  3403  061C                     l4426:	
  3404  061C  3001               	movlw	low(01h)
  3405  061D  02CD               	subwf	(___ftmul@cntr),f
  3406  061E  1D03               	btfss	status,2
  3407  061F  2E21               	goto	u4531
  3408  0620  2E22               	goto	u4530
  3409  0621                     u4531:
  3410  0621  2DF7               	goto	l4418
  3411  0622                     u4530:
  3412  0622  2E23               	goto	l4428
  3413                           	
  3414  0623                     l1577:	
  3415                           	line	76
  3416                           	
  3417  0623                     l4428:	
  3418  0623  3009               	movlw	(09h)
  3419  0624  00C5               	movwf	(??___ftmul+0)+0
  3420  0625  0845               	movf	(??___ftmul+0)+0,w
  3421  0626  00CD               	movwf	(___ftmul@cntr)
  3422  0627  2E28               	goto	l4430
  3423                           	line	77
  3424                           	
  3425  0628                     l1578:	
  3426                           	line	78
  3427                           	
  3428  0628                     l4430:	
  3429  0628  1C3F               	btfss	(___ftmul@f1),(0)&7
  3430  0629  2E2B               	goto	u4541
  3431  062A  2E2C               	goto	u4540
  3432  062B                     u4541:
  3433  062B  2E3D               	goto	l4434
  3434  062C                     u4540:
  3435                           	line	79
  3436                           	
  3437  062C                     l4432:	
  3438  062C  0842               	movf	(___ftmul@f2),w
  3439  062D  07CA               	addwf	(___ftmul@f3_as_product),f
  3440  062E  0843               	movf	(___ftmul@f2+1),w
  3441  062F  1103               	clrz
  3442  0630  1803               	skipnc
  3443  0631  0A43               	incf	(___ftmul@f2+1),w
  3444  0632  1903               	skipnz
  3445  0633  2E35               	goto	u4551
  3446  0634  07CB               	addwf	(___ftmul@f3_as_product+1),f
  3447  0635                     u4551:
  3448  0635  0844               	movf	(___ftmul@f2+2),w
  3449  0636  1103               	clrz
  3450  0637  1803               	skipnc
  3451  0638  0A44               	incf	(___ftmul@f2+2),w
  3452  0639  1903               	skipnz
  3453  063A  2E3C               	goto	u4552
  3454  063B  07CC               	addwf	(___ftmul@f3_as_product+2),f
  3455  063C                     u4552:
  3456                           
  3457  063C  2E3D               	goto	l4434
  3458                           	
  3459  063D                     l1579:	
  3460                           	line	80
  3461                           	
  3462  063D                     l4434:	
  3463  063D  3001               	movlw	01h
  3464  063E                     u4565:
  3465  063E  1003               	clrc
  3466  063F  0CC1               	rrf	(___ftmul@f1+2),f
  3467  0640  0CC0               	rrf	(___ftmul@f1+1),f
  3468  0641  0CBF               	rrf	(___ftmul@f1),f
  3469  0642  3EFF               	addlw	-1
  3470  0643  1D03               	skipz
  3471  0644  2E3E               	goto	u4565
  3472                           
  3473                           	line	81
  3474                           	
  3475  0645                     l4436:	
  3476  0645  3001               	movlw	01h
  3477  0646                     u4575:
  3478  0646  1003               	clrc
  3479  0647  0CCC               	rrf	(___ftmul@f3_as_product+2),f
  3480  0648  0CCB               	rrf	(___ftmul@f3_as_product+1),f
  3481  0649  0CCA               	rrf	(___ftmul@f3_as_product),f
  3482  064A  3EFF               	addlw	-1
  3483  064B  1D03               	skipz
  3484  064C  2E46               	goto	u4575
  3485                           
  3486                           	line	82
  3487                           	
  3488  064D                     l4438:	
  3489  064D  3001               	movlw	low(01h)
  3490  064E  02CD               	subwf	(___ftmul@cntr),f
  3491  064F  1D03               	btfss	status,2
  3492  0650  2E52               	goto	u4581
  3493  0651  2E53               	goto	u4580
  3494  0652                     u4581:
  3495  0652  2E28               	goto	l4430
  3496  0653                     u4580:
  3497  0653  2E54               	goto	l4440
  3498                           	
  3499  0654                     l1580:	
  3500                           	line	83
  3501                           	
  3502  0654                     l4440:	
  3503  0654  084A               	movf	(___ftmul@f3_as_product),w
  3504  0655  00A0               	movwf	(?___ftpack)
  3505  0656  084B               	movf	(___ftmul@f3_as_product+1),w
  3506  0657  00A1               	movwf	(?___ftpack+1)
  3507  0658  084C               	movf	(___ftmul@f3_as_product+2),w
  3508  0659  00A2               	movwf	(?___ftpack+2)
  3509  065A  0849               	movf	(___ftmul@exp),w
  3510  065B  00C5               	movwf	(??___ftmul+0)+0
  3511  065C  0845               	movf	(??___ftmul+0)+0,w
  3512  065D  00A3               	movwf	0+(?___ftpack)+03h
  3513  065E  084E               	movf	(___ftmul@sign),w
  3514  065F  00C6               	movwf	(??___ftmul+1)+0
  3515  0660  0846               	movf	(??___ftmul+1)+0,w
  3516  0661  00A4               	movwf	0+(?___ftpack)+04h
  3517  0662  120A  158A  25E1   	fcall	___ftpack
              120A  118A         
  3518  0667  1283               	bcf	status, 5	;RP0=0, select bank0
  3519  0668  1303               	bcf	status, 6	;RP1=0, select bank0
  3520  0669  0820               	movf	(0+(?___ftpack)),w
  3521  066A  00BF               	movwf	(?___ftmul)
  3522  066B  0821               	movf	(1+(?___ftpack)),w
  3523  066C  00C0               	movwf	(?___ftmul+1)
  3524  066D  0822               	movf	(2+(?___ftpack)),w
  3525  066E  00C1               	movwf	(?___ftmul+2)
  3526  066F  2E70               	goto	l1573
  3527                           	
  3528  0670                     l4442:	
  3529                           	line	84
  3530                           	
  3531  0670                     l1573:	
  3532  0670  0008               	return
  3533                           	opt stack 0
  3534                           GLOBAL	__end_of___ftmul
  3535  0671                     	__end_of___ftmul:
  3536 ;; =============== function ___ftmul ends ============
  3537                           
  3538                           	signat	___ftmul,8315
  3539                           	global	___ftdiv
  3540                           psect	text777,local,class=CODE,delta=2
  3541                           global __ptext777
  3542  0671                     __ptext777:
  3543                           
  3544 ;; *************** function ___ftdiv *****************
  3545 ;; Defined at:
  3546 ;;		line 50 in file "C:\Program Files (x86)\HI-TECH Software\PICC\9.82\sources\ftdiv.c"
  3547 ;; Parameters:    Size  Location     Type
  3548 ;;  f2              3   22[BANK0 ] float 
  3549 ;;  f1              3   25[BANK0 ] float 
  3550 ;; Auto vars:     Size  Location     Type
  3551 ;;  f3              3   33[BANK0 ] float 
  3552 ;;  sign            1   37[BANK0 ] unsigned char 
  3553 ;;  exp             1   36[BANK0 ] unsigned char 
  3554 ;;  cntr            1   32[BANK0 ] unsigned char 
  3555 ;; Return value:  Size  Location     Type
  3556 ;;                  3   22[BANK0 ] float 
  3557 ;; Registers used:
  3558 ;;		wreg, status,2, status,0, pclath, cstack
  3559 ;; Tracked objects:
  3560 ;;		On entry : 0/0
  3561 ;;		On exit  : 0/0
  3562 ;;		Unchanged: 0/0
  3563 ;; Data sizes:     COMMON   BANK0   BANK1   BANK3   BANK2
  3564 ;;      Params:         0       6       0       0       0
  3565 ;;      Locals:         0       6       0       0       0
  3566 ;;      Temps:          0       4       0       0       0
  3567 ;;      Totals:         0      16       0       0       0
  3568 ;;Total ram usage:       16 bytes
  3569 ;; Hardware stack levels used:    1
  3570 ;; Hardware stack levels required when called:    2
  3571 ;; This function calls:
  3572 ;;		___ftpack
  3573 ;; This function is called by:
  3574 ;;		_set_pwm_frequency
  3575 ;; This function uses a non-reentrant model
  3576 ;;
  3577                           psect	text777
  3578                           	file	"C:\Program Files (x86)\HI-TECH Software\PICC\9.82\sources\ftdiv.c"
  3579                           	line	50
  3580                           	global	__size_of___ftdiv
  3581  00C8                     	__size_of___ftdiv	equ	__end_of___ftdiv-___ftdiv
  3582                           	
  3583  0671                     ___ftdiv:	
  3584                           	opt	stack 4
  3585                           ; Regs used in ___ftdiv: [wreg+status,2+status,0+pclath+cstack]
  3586                           	line	55
  3587                           	
  3588  0671                     l4352:	
  3589  0671  1283               	bcf	status, 5	;RP0=0, select bank0
  3590  0672  1303               	bcf	status, 6	;RP1=0, select bank0
  3591  0673  0839               	movf	(___ftdiv@f1),w
  3592  0674  00BC               	movwf	((??___ftdiv+0)+0)
  3593  0675  083A               	movf	(___ftdiv@f1+1),w
  3594  0676  00BD               	movwf	((??___ftdiv+0)+0+1)
  3595  0677  083B               	movf	(___ftdiv@f1+2),w
  3596  0678  00BE               	movwf	((??___ftdiv+0)+0+2)
  3597  0679  1003               	clrc
  3598  067A  0D3D               	rlf	(??___ftdiv+0)+1,w
  3599  067B  0D3E               	rlf	(??___ftdiv+0)+2,w
  3600  067C  00BF               	movwf	(??___ftdiv+3)+0
  3601  067D  083F               	movf	(??___ftdiv+3)+0,w
  3602  067E  00C4               	movwf	(___ftdiv@exp)
  3603  067F  08C4               	movf	((___ftdiv@exp)),f
  3604  0680  1D03               	skipz
  3605  0681  2E83               	goto	u4371
  3606  0682  2E84               	goto	u4370
  3607  0683                     u4371:
  3608  0683  2E8C               	goto	l4358
  3609  0684                     u4370:
  3610                           	line	56
  3611                           	
  3612  0684                     l4354:	
  3613  0684  3000               	movlw	0x0
  3614  0685  00B6               	movwf	(?___ftdiv)
  3615  0686  3000               	movlw	0x0
  3616  0687  00B7               	movwf	(?___ftdiv+1)
  3617  0688  3000               	movlw	0x0
  3618  0689  00B8               	movwf	(?___ftdiv+2)
  3619  068A  2F38               	goto	l1563
  3620                           	
  3621  068B                     l4356:	
  3622  068B  2F38               	goto	l1563
  3623                           	
  3624  068C                     l1562:	
  3625                           	line	57
  3626                           	
  3627  068C                     l4358:	
  3628  068C  0836               	movf	(___ftdiv@f2),w
  3629  068D  00BC               	movwf	((??___ftdiv+0)+0)
  3630  068E  0837               	movf	(___ftdiv@f2+1),w
  3631  068F  00BD               	movwf	((??___ftdiv+0)+0+1)
  3632  0690  0838               	movf	(___ftdiv@f2+2),w
  3633  0691  00BE               	movwf	((??___ftdiv+0)+0+2)
  3634  0692  1003               	clrc
  3635  0693  0D3D               	rlf	(??___ftdiv+0)+1,w
  3636  0694  0D3E               	rlf	(??___ftdiv+0)+2,w
  3637  0695  00BF               	movwf	(??___ftdiv+3)+0
  3638  0696  083F               	movf	(??___ftdiv+3)+0,w
  3639  0697  00C5               	movwf	(___ftdiv@sign)
  3640  0698  08C5               	movf	((___ftdiv@sign)),f
  3641  0699  1D03               	skipz
  3642  069A  2E9C               	goto	u4381
  3643  069B  2E9D               	goto	u4380
  3644  069C                     u4381:
  3645  069C  2EA5               	goto	l4364
  3646  069D                     u4380:
  3647                           	line	58
  3648                           	
  3649  069D                     l4360:	
  3650  069D  3000               	movlw	0x0
  3651  069E  00B6               	movwf	(?___ftdiv)
  3652  069F  3000               	movlw	0x0
  3653  06A0  00B7               	movwf	(?___ftdiv+1)
  3654  06A1  3000               	movlw	0x0
  3655  06A2  00B8               	movwf	(?___ftdiv+2)
  3656  06A3  2F38               	goto	l1563
  3657                           	
  3658  06A4                     l4362:	
  3659  06A4  2F38               	goto	l1563
  3660                           	
  3661  06A5                     l1564:	
  3662                           	line	59
  3663                           	
  3664  06A5                     l4364:	
  3665  06A5  3000               	movlw	0
  3666  06A6  00C1               	movwf	(___ftdiv@f3)
  3667  06A7  3000               	movlw	0
  3668  06A8  00C2               	movwf	(___ftdiv@f3+1)
  3669  06A9  3000               	movlw	0
  3670  06AA  00C3               	movwf	(___ftdiv@f3+2)
  3671                           	line	60
  3672                           	
  3673  06AB                     l4366:	
  3674  06AB  3089               	movlw	(089h)
  3675  06AC  0745               	addwf	(___ftdiv@sign),w
  3676  06AD  00BC               	movwf	(??___ftdiv+0)+0
  3677  06AE  083C               	movf	0+(??___ftdiv+0)+0,w
  3678  06AF  02C4               	subwf	(___ftdiv@exp),f
  3679                           	line	61
  3680                           	
  3681  06B0                     l4368:	
  3682  06B0  0839               	movf	(___ftdiv@f1),w
  3683  06B1  00BC               	movwf	((??___ftdiv+0)+0)
  3684  06B2  083A               	movf	(___ftdiv@f1+1),w
  3685  06B3  00BD               	movwf	((??___ftdiv+0)+0+1)
  3686  06B4  083B               	movf	(___ftdiv@f1+2),w
  3687  06B5  00BE               	movwf	((??___ftdiv+0)+0+2)
  3688  06B6  3010               	movlw	010h
  3689  06B7                     u4395:
  3690  06B7  1003               	clrc
  3691  06B8  0CBE               	rrf	(??___ftdiv+0)+2,f
  3692  06B9  0CBD               	rrf	(??___ftdiv+0)+1,f
  3693  06BA  0CBC               	rrf	(??___ftdiv+0)+0,f
  3694  06BB                     u4390:
  3695  06BB  3EFF               	addlw	-1
  3696  06BC  1D03               	skipz
  3697  06BD  2EB7               	goto	u4395
  3698  06BE  083C               	movf	0+(??___ftdiv+0)+0,w
  3699  06BF  00BF               	movwf	(??___ftdiv+3)+0
  3700  06C0  083F               	movf	(??___ftdiv+3)+0,w
  3701  06C1  00C5               	movwf	(___ftdiv@sign)
  3702                           	line	62
  3703                           	
  3704  06C2                     l4370:	
  3705  06C2  0836               	movf	(___ftdiv@f2),w
  3706  06C3  00BC               	movwf	((??___ftdiv+0)+0)
  3707  06C4  0837               	movf	(___ftdiv@f2+1),w
  3708  06C5  00BD               	movwf	((??___ftdiv+0)+0+1)
  3709  06C6  0838               	movf	(___ftdiv@f2+2),w
  3710  06C7  00BE               	movwf	((??___ftdiv+0)+0+2)
  3711  06C8  3010               	movlw	010h
  3712  06C9                     u4405:
  3713  06C9  1003               	clrc
  3714  06CA  0CBE               	rrf	(??___ftdiv+0)+2,f
  3715  06CB  0CBD               	rrf	(??___ftdiv+0)+1,f
  3716  06CC  0CBC               	rrf	(??___ftdiv+0)+0,f
  3717  06CD                     u4400:
  3718  06CD  3EFF               	addlw	-1
  3719  06CE  1D03               	skipz
  3720  06CF  2EC9               	goto	u4405
  3721  06D0  083C               	movf	0+(??___ftdiv+0)+0,w
  3722  06D1  00BF               	movwf	(??___ftdiv+3)+0
  3723  06D2  083F               	movf	(??___ftdiv+3)+0,w
  3724  06D3  06C5               	xorwf	(___ftdiv@sign),f
  3725                           	line	63
  3726                           	
  3727  06D4                     l4372:	
  3728  06D4  3080               	movlw	(080h)
  3729  06D5  00BC               	movwf	(??___ftdiv+0)+0
  3730  06D6  083C               	movf	(??___ftdiv+0)+0,w
  3731  06D7  05C5               	andwf	(___ftdiv@sign),f
  3732                           	line	64
  3733                           	
  3734  06D8                     l4374:	
  3735  06D8  17BA               	bsf	(___ftdiv@f1)+(15/8),(15)&7
  3736                           	line	65
  3737  06D9  30FF               	movlw	0FFh
  3738  06DA  05B9               	andwf	(___ftdiv@f1),f
  3739  06DB  30FF               	movlw	0FFh
  3740  06DC  05BA               	andwf	(___ftdiv@f1+1),f
  3741  06DD  3000               	movlw	0
  3742  06DE  05BB               	andwf	(___ftdiv@f1+2),f
  3743                           	line	66
  3744                           	
  3745  06DF                     l4376:	
  3746  06DF  17B7               	bsf	(___ftdiv@f2)+(15/8),(15)&7
  3747                           	line	67
  3748  06E0  30FF               	movlw	0FFh
  3749  06E1  05B6               	andwf	(___ftdiv@f2),f
  3750  06E2  30FF               	movlw	0FFh
  3751  06E3  05B7               	andwf	(___ftdiv@f2+1),f
  3752  06E4  3000               	movlw	0
  3753  06E5  05B8               	andwf	(___ftdiv@f2+2),f
  3754                           	line	68
  3755  06E6  3018               	movlw	(018h)
  3756  06E7  00BC               	movwf	(??___ftdiv+0)+0
  3757  06E8  083C               	movf	(??___ftdiv+0)+0,w
  3758  06E9  00C0               	movwf	(___ftdiv@cntr)
  3759  06EA  2EEB               	goto	l4378
  3760                           	line	69
  3761                           	
  3762  06EB                     l1565:	
  3763                           	line	70
  3764                           	
  3765  06EB                     l4378:	
  3766  06EB  3001               	movlw	01h
  3767  06EC                     u4415:
  3768  06EC  1003               	clrc
  3769  06ED  0DC1               	rlf	(___ftdiv@f3),f
  3770  06EE  0DC2               	rlf	(___ftdiv@f3+1),f
  3771  06EF  0DC3               	rlf	(___ftdiv@f3+2),f
  3772  06F0  3EFF               	addlw	-1
  3773  06F1  1D03               	skipz
  3774  06F2  2EEC               	goto	u4415
  3775                           	line	71
  3776                           	
  3777  06F3                     l4380:	
  3778  06F3  0838               	movf	(___ftdiv@f2+2),w
  3779  06F4  023B               	subwf	(___ftdiv@f1+2),w
  3780  06F5  1D03               	skipz
  3781  06F6  2EFD               	goto	u4425
  3782  06F7  0837               	movf	(___ftdiv@f2+1),w
  3783  06F8  023A               	subwf	(___ftdiv@f1+1),w
  3784  06F9  1D03               	skipz
  3785  06FA  2EFD               	goto	u4425
  3786  06FB  0836               	movf	(___ftdiv@f2),w
  3787  06FC  0239               	subwf	(___ftdiv@f1),w
  3788  06FD                     u4425:
  3789  06FD  1C03               	skipc
  3790  06FE  2F00               	goto	u4421
  3791  06FF  2F01               	goto	u4420
  3792  0700                     u4421:
  3793  0700  2F0D               	goto	l4386
  3794  0701                     u4420:
  3795                           	line	72
  3796                           	
  3797  0701                     l4382:	
  3798  0701  0836               	movf	(___ftdiv@f2),w
  3799  0702  02B9               	subwf	(___ftdiv@f1),f
  3800  0703  0837               	movf	(___ftdiv@f2+1),w
  3801  0704  1C03               	skipc
  3802  0705  0F37               	incfsz	(___ftdiv@f2+1),w
  3803  0706  02BA               	subwf	(___ftdiv@f1+1),f
  3804  0707  0838               	movf	(___ftdiv@f2+2),w
  3805  0708  1C03               	skipc
  3806  0709  0A38               	incf	(___ftdiv@f2+2),w
  3807  070A  02BB               	subwf	(___ftdiv@f1+2),f
  3808                           	line	73
  3809                           	
  3810  070B                     l4384:	
  3811  070B  1441               	bsf	(___ftdiv@f3)+(0/8),(0)&7
  3812  070C  2F0D               	goto	l4386
  3813                           	line	74
  3814                           	
  3815  070D                     l1566:	
  3816                           	line	75
  3817                           	
  3818  070D                     l4386:	
  3819  070D  3001               	movlw	01h
  3820  070E                     u4435:
  3821  070E  1003               	clrc
  3822  070F  0DB9               	rlf	(___ftdiv@f1),f
  3823  0710  0DBA               	rlf	(___ftdiv@f1+1),f
  3824  0711  0DBB               	rlf	(___ftdiv@f1+2),f
  3825  0712  3EFF               	addlw	-1
  3826  0713  1D03               	skipz
  3827  0714  2F0E               	goto	u4435
  3828                           	line	76
  3829                           	
  3830  0715                     l4388:	
  3831  0715  3001               	movlw	low(01h)
  3832  0716  02C0               	subwf	(___ftdiv@cntr),f
  3833  0717  1D03               	btfss	status,2
  3834  0718  2F1A               	goto	u4441
  3835  0719  2F1B               	goto	u4440
  3836  071A                     u4441:
  3837  071A  2EEB               	goto	l4378
  3838  071B                     u4440:
  3839  071B  2F1C               	goto	l4390
  3840                           	
  3841  071C                     l1567:	
  3842                           	line	77
  3843                           	
  3844  071C                     l4390:	
  3845  071C  0841               	movf	(___ftdiv@f3),w
  3846  071D  00A0               	movwf	(?___ftpack)
  3847  071E  0842               	movf	(___ftdiv@f3+1),w
  3848  071F  00A1               	movwf	(?___ftpack+1)
  3849  0720  0843               	movf	(___ftdiv@f3+2),w
  3850  0721  00A2               	movwf	(?___ftpack+2)
  3851  0722  0844               	movf	(___ftdiv@exp),w
  3852  0723  00BC               	movwf	(??___ftdiv+0)+0
  3853  0724  083C               	movf	(??___ftdiv+0)+0,w
  3854  0725  00A3               	movwf	0+(?___ftpack)+03h
  3855  0726  0845               	movf	(___ftdiv@sign),w
  3856  0727  00BD               	movwf	(??___ftdiv+1)+0
  3857  0728  083D               	movf	(??___ftdiv+1)+0,w
  3858  0729  00A4               	movwf	0+(?___ftpack)+04h
  3859  072A  120A  158A  25E1   	fcall	___ftpack
              120A  118A         
  3860  072F  1283               	bcf	status, 5	;RP0=0, select bank0
  3861  0730  1303               	bcf	status, 6	;RP1=0, select bank0
  3862  0731  0820               	movf	(0+(?___ftpack)),w
  3863  0732  00B6               	movwf	(?___ftdiv)
  3864  0733  0821               	movf	(1+(?___ftpack)),w
  3865  0734  00B7               	movwf	(?___ftdiv+1)
  3866  0735  0822               	movf	(2+(?___ftpack)),w
  3867  0736  00B8               	movwf	(?___ftdiv+2)
  3868  0737  2F38               	goto	l1563
  3869                           	
  3870  0738                     l4392:	
  3871                           	line	78
  3872                           	
  3873  0738                     l1563:	
  3874  0738  0008               	return
  3875                           	opt stack 0
  3876                           GLOBAL	__end_of___ftdiv
  3877  0739                     	__end_of___ftdiv:
  3878 ;; =============== function ___ftdiv ends ============
  3879                           
  3880                           	signat	___ftdiv,8315
  3881                           	global	___ftadd
  3882                           psect	text778,local,class=CODE,delta=2
  3883                           global __ptext778
  3884  043D                     __ptext778:
  3885                           
  3886 ;; *************** function ___ftadd *****************
  3887 ;; Defined at:
  3888 ;;		line 87 in file "C:\Program Files (x86)\HI-TECH Software\PICC\9.82\sources\ftadd.c"
  3889 ;; Parameters:    Size  Location     Type
  3890 ;;  f1              3   47[BANK0 ] float 
  3891 ;;  f2              3   50[BANK0 ] float 
  3892 ;; Auto vars:     Size  Location     Type
  3893 ;;  exp1            1   59[BANK0 ] unsigned char 
  3894 ;;  exp2            1   58[BANK0 ] unsigned char 
  3895 ;;  sign            1   57[BANK0 ] unsigned char 
  3896 ;; Return value:  Size  Location     Type
  3897 ;;                  3   47[BANK0 ] float 
  3898 ;; Registers used:
  3899 ;;		wreg, status,2, status,0, pclath, cstack
  3900 ;; Tracked objects:
  3901 ;;		On entry : 0/0
  3902 ;;		On exit  : 0/0
  3903 ;;		Unchanged: 0/0
  3904 ;; Data sizes:     COMMON   BANK0   BANK1   BANK3   BANK2
  3905 ;;      Params:         0       6       0       0       0
  3906 ;;      Locals:         0       3       0       0       0
  3907 ;;      Temps:          0       4       0       0       0
  3908 ;;      Totals:         0      13       0       0       0
  3909 ;;Total ram usage:       13 bytes
  3910 ;; Hardware stack levels used:    1
  3911 ;; Hardware stack levels required when called:    2
  3912 ;; This function calls:
  3913 ;;		___ftpack
  3914 ;; This function is called by:
  3915 ;;		_lcd_putnumf
  3916 ;;		___ftsub
  3917 ;; This function uses a non-reentrant model
  3918 ;;
  3919                           psect	text778
  3920                           	file	"C:\Program Files (x86)\HI-TECH Software\PICC\9.82\sources\ftadd.c"
  3921                           	line	87
  3922                           	global	__size_of___ftadd
  3923  0146                     	__size_of___ftadd	equ	__end_of___ftadd-___ftadd
  3924                           	
  3925  043D                     ___ftadd:	
  3926                           	opt	stack 4
  3927                           ; Regs used in ___ftadd: [wreg+status,2+status,0+pclath+cstack]
  3928                           	line	90
  3929                           	
  3930  043D                     l4282:	
  3931  043D  1283               	bcf	status, 5	;RP0=0, select bank0
  3932  043E  1303               	bcf	status, 6	;RP1=0, select bank0
  3933  043F  084F               	movf	(___ftadd@f1),w
  3934  0440  00D5               	movwf	((??___ftadd+0)+0)
  3935  0441  0850               	movf	(___ftadd@f1+1),w
  3936  0442  00D6               	movwf	((??___ftadd+0)+0+1)
  3937  0443  0851               	movf	(___ftadd@f1+2),w
  3938  0444  00D7               	movwf	((??___ftadd+0)+0+2)
  3939  0445  1003               	clrc
  3940  0446  0D56               	rlf	(??___ftadd+0)+1,w
  3941  0447  0D57               	rlf	(??___ftadd+0)+2,w
  3942  0448  00D8               	movwf	(??___ftadd+3)+0
  3943  0449  0858               	movf	(??___ftadd+3)+0,w
  3944  044A  00DB               	movwf	(___ftadd@exp1)
  3945                           	line	91
  3946  044B  0852               	movf	(___ftadd@f2),w
  3947  044C  00D5               	movwf	((??___ftadd+0)+0)
  3948  044D  0853               	movf	(___ftadd@f2+1),w
  3949  044E  00D6               	movwf	((??___ftadd+0)+0+1)
  3950  044F  0854               	movf	(___ftadd@f2+2),w
  3951  0450  00D7               	movwf	((??___ftadd+0)+0+2)
  3952  0451  1003               	clrc
  3953  0452  0D56               	rlf	(??___ftadd+0)+1,w
  3954  0453  0D57               	rlf	(??___ftadd+0)+2,w
  3955  0454  00D8               	movwf	(??___ftadd+3)+0
  3956  0455  0858               	movf	(??___ftadd+3)+0,w
  3957  0456  00DA               	movwf	(___ftadd@exp2)
  3958                           	line	92
  3959                           	
  3960  0457                     l4284:	
  3961  0457  085B               	movf	(___ftadd@exp1),w
  3962  0458  1D03               	skipz
  3963  0459  2C5B               	goto	u4130
  3964  045A  2C6C               	goto	l4290
  3965  045B                     u4130:
  3966                           	
  3967  045B                     l4286:	
  3968  045B  085A               	movf	(___ftadd@exp2),w
  3969  045C  025B               	subwf	(___ftadd@exp1),w
  3970  045D  1803               	skipnc
  3971  045E  2C60               	goto	u4141
  3972  045F  2C61               	goto	u4140
  3973  0460                     u4141:
  3974  0460  2C74               	goto	l4294
  3975  0461                     u4140:
  3976                           	
  3977  0461                     l4288:	
  3978  0461  035B               	decf	(___ftadd@exp1),w
  3979  0462  3AFF               	xorlw	0ffh
  3980  0463  075A               	addwf	(___ftadd@exp2),w
  3981  0464  00D5               	movwf	(??___ftadd+0)+0
  3982  0465  3019               	movlw	(019h)
  3983  0466  0255               	subwf	0+(??___ftadd+0)+0,w
  3984  0467  1C03               	skipc
  3985  0468  2C6A               	goto	u4151
  3986  0469  2C6B               	goto	u4150
  3987  046A                     u4151:
  3988  046A  2C74               	goto	l4294
  3989  046B                     u4150:
  3990  046B  2C6C               	goto	l4290
  3991                           	
  3992  046C                     l1520:	
  3993                           	line	93
  3994                           	
  3995  046C                     l4290:	
  3996  046C  0852               	movf	(___ftadd@f2),w
  3997  046D  00CF               	movwf	(?___ftadd)
  3998  046E  0853               	movf	(___ftadd@f2+1),w
  3999  046F  00D0               	movwf	(?___ftadd+1)
  4000  0470  0854               	movf	(___ftadd@f2+2),w
  4001  0471  00D1               	movwf	(?___ftadd+2)
  4002  0472  2D82               	goto	l1521
  4003                           	
  4004  0473                     l4292:	
  4005  0473  2D82               	goto	l1521
  4006                           	
  4007  0474                     l1518:	
  4008                           	line	94
  4009                           	
  4010  0474                     l4294:	
  4011  0474  085A               	movf	(___ftadd@exp2),w
  4012  0475  1D03               	skipz
  4013  0476  2C78               	goto	u4160
  4014  0477  2C88               	goto	l1524
  4015  0478                     u4160:
  4016                           	
  4017  0478                     l4296:	
  4018  0478  085B               	movf	(___ftadd@exp1),w
  4019  0479  025A               	subwf	(___ftadd@exp2),w
  4020  047A  1803               	skipnc
  4021  047B  2C7D               	goto	u4171
  4022  047C  2C7E               	goto	u4170
  4023  047D                     u4171:
  4024  047D  2C89               	goto	l4300
  4025  047E                     u4170:
  4026                           	
  4027  047E                     l4298:	
  4028  047E  035A               	decf	(___ftadd@exp2),w
  4029  047F  3AFF               	xorlw	0ffh
  4030  0480  075B               	addwf	(___ftadd@exp1),w
  4031  0481  00D5               	movwf	(??___ftadd+0)+0
  4032  0482  3019               	movlw	(019h)
  4033  0483  0255               	subwf	0+(??___ftadd+0)+0,w
  4034  0484  1C03               	skipc
  4035  0485  2C87               	goto	u4181
  4036  0486  2C88               	goto	u4180
  4037  0487                     u4181:
  4038  0487  2C89               	goto	l4300
  4039  0488                     u4180:
  4040                           	
  4041  0488                     l1524:	
  4042                           	line	95
  4043  0488  2D82               	goto	l1521
  4044                           	
  4045  0489                     l1522:	
  4046                           	line	96
  4047                           	
  4048  0489                     l4300:	
  4049  0489  3006               	movlw	(06h)
  4050  048A  00D5               	movwf	(??___ftadd+0)+0
  4051  048B  0855               	movf	(??___ftadd+0)+0,w
  4052  048C  00D9               	movwf	(___ftadd@sign)
  4053                           	line	97
  4054                           	
  4055  048D                     l4302:	
  4056  048D  1FD1               	btfss	(___ftadd@f1+2),(23)&7
  4057  048E  2C90               	goto	u4191
  4058  048F  2C91               	goto	u4190
  4059  0490                     u4191:
  4060  0490  2C92               	goto	l1525
  4061  0491                     u4190:
  4062                           	line	98
  4063                           	
  4064  0491                     l4304:	
  4065  0491  17D9               	bsf	(___ftadd@sign)+(7/8),(7)&7
  4066                           	
  4067  0492                     l1525:	
  4068                           	line	99
  4069  0492  1FD4               	btfss	(___ftadd@f2+2),(23)&7
  4070  0493  2C95               	goto	u4201
  4071  0494  2C96               	goto	u4200
  4072  0495                     u4201:
  4073  0495  2C97               	goto	l1526
  4074  0496                     u4200:
  4075                           	line	100
  4076                           	
  4077  0496                     l4306:	
  4078  0496  1759               	bsf	(___ftadd@sign)+(6/8),(6)&7
  4079                           	
  4080  0497                     l1526:	
  4081                           	line	101
  4082  0497  17D0               	bsf	(___ftadd@f1)+(15/8),(15)&7
  4083                           	line	102
  4084                           	
  4085  0498                     l4308:	
  4086  0498  30FF               	movlw	0FFh
  4087  0499  05CF               	andwf	(___ftadd@f1),f
  4088  049A  30FF               	movlw	0FFh
  4089  049B  05D0               	andwf	(___ftadd@f1+1),f
  4090  049C  3000               	movlw	0
  4091  049D  05D1               	andwf	(___ftadd@f1+2),f
  4092                           	line	103
  4093                           	
  4094  049E                     l4310:	
  4095  049E  17D3               	bsf	(___ftadd@f2)+(15/8),(15)&7
  4096                           	line	104
  4097  049F  30FF               	movlw	0FFh
  4098  04A0  05D2               	andwf	(___ftadd@f2),f
  4099  04A1  30FF               	movlw	0FFh
  4100  04A2  05D3               	andwf	(___ftadd@f2+1),f
  4101  04A3  3000               	movlw	0
  4102  04A4  05D4               	andwf	(___ftadd@f2+2),f
  4103                           	line	106
  4104  04A5  085A               	movf	(___ftadd@exp2),w
  4105  04A6  025B               	subwf	(___ftadd@exp1),w
  4106  04A7  1803               	skipnc
  4107  04A8  2CAA               	goto	u4211
  4108  04A9  2CAB               	goto	u4210
  4109  04AA                     u4211:
  4110  04AA  2CDC               	goto	l4322
  4111  04AB                     u4210:
  4112  04AB  2CAC               	goto	l4312
  4113                           	line	109
  4114                           	
  4115  04AC                     l1528:	
  4116                           	line	110
  4117                           	
  4118  04AC                     l4312:	
  4119  04AC  3001               	movlw	01h
  4120  04AD                     u4225:
  4121  04AD  1003               	clrc
  4122  04AE  0DD2               	rlf	(___ftadd@f2),f
  4123  04AF  0DD3               	rlf	(___ftadd@f2+1),f
  4124  04B0  0DD4               	rlf	(___ftadd@f2+2),f
  4125  04B1  3EFF               	addlw	-1
  4126  04B2  1D03               	skipz
  4127  04B3  2CAD               	goto	u4225
  4128                           	line	111
  4129  04B4  3001               	movlw	low(01h)
  4130  04B5  02DA               	subwf	(___ftadd@exp2),f
  4131                           	line	112
  4132                           	
  4133  04B6                     l4314:	
  4134  04B6  085A               	movf	(___ftadd@exp2),w
  4135  04B7  065B               	xorwf	(___ftadd@exp1),w
  4136  04B8  1903               	skipnz
  4137  04B9  2CBB               	goto	u4231
  4138  04BA  2CBC               	goto	u4230
  4139  04BB                     u4231:
  4140  04BB  2CD4               	goto	l4320
  4141  04BC                     u4230:
  4142                           	
  4143  04BC                     l4316:	
  4144  04BC  3001               	movlw	low(01h)
  4145  04BD  02D9               	subwf	(___ftadd@sign),f
  4146  04BE  0859               	movf	((___ftadd@sign)),w
  4147  04BF  3907               	andlw	07h
  4148  04C0  1D03               	btfss	status,2
  4149  04C1  2CC3               	goto	u4241
  4150  04C2  2CC4               	goto	u4240
  4151  04C3                     u4241:
  4152  04C3  2CAC               	goto	l4312
  4153  04C4                     u4240:
  4154  04C4  2CD4               	goto	l4320
  4155                           	
  4156  04C5                     l1530:	
  4157  04C5  2CD4               	goto	l4320
  4158                           	
  4159  04C6                     l1531:	
  4160                           	line	113
  4161  04C6  2CD4               	goto	l4320
  4162                           	
  4163  04C7                     l1533:	
  4164                           	line	114
  4165                           	
  4166  04C7                     l4318:	
  4167  04C7  3001               	movlw	01h
  4168  04C8                     u4255:
  4169  04C8  1003               	clrc
  4170  04C9  0CD1               	rrf	(___ftadd@f1+2),f
  4171  04CA  0CD0               	rrf	(___ftadd@f1+1),f
  4172  04CB  0CCF               	rrf	(___ftadd@f1),f
  4173  04CC  3EFF               	addlw	-1
  4174  04CD  1D03               	skipz
  4175  04CE  2CC8               	goto	u4255
  4176                           
  4177                           	line	115
  4178  04CF  3001               	movlw	(01h)
  4179  04D0  00D5               	movwf	(??___ftadd+0)+0
  4180  04D1  0855               	movf	(??___ftadd+0)+0,w
  4181  04D2  07DB               	addwf	(___ftadd@exp1),f
  4182  04D3  2CD4               	goto	l4320
  4183                           	line	116
  4184                           	
  4185  04D4                     l1532:	
  4186                           	line	113
  4187                           	
  4188  04D4                     l4320:	
  4189  04D4  085B               	movf	(___ftadd@exp1),w
  4190  04D5  065A               	xorwf	(___ftadd@exp2),w
  4191  04D6  1D03               	skipz
  4192  04D7  2CD9               	goto	u4261
  4193  04D8  2CDA               	goto	u4260
  4194  04D9                     u4261:
  4195  04D9  2CC7               	goto	l4318
  4196  04DA                     u4260:
  4197  04DA  2D13               	goto	l1535
  4198                           	
  4199  04DB                     l1534:	
  4200                           	line	117
  4201  04DB  2D13               	goto	l1535
  4202                           	
  4203  04DC                     l1527:	
  4204                           	
  4205  04DC                     l4322:	
  4206  04DC  085B               	movf	(___ftadd@exp1),w
  4207  04DD  025A               	subwf	(___ftadd@exp2),w
  4208  04DE  1803               	skipnc
  4209  04DF  2CE1               	goto	u4271
  4210  04E0  2CE2               	goto	u4270
  4211  04E1                     u4271:
  4212  04E1  2D13               	goto	l1535
  4213  04E2                     u4270:
  4214  04E2  2CE3               	goto	l4324
  4215                           	line	120
  4216                           	
  4217  04E3                     l1537:	
  4218                           	line	121
  4219                           	
  4220  04E3                     l4324:	
  4221  04E3  3001               	movlw	01h
  4222  04E4                     u4285:
  4223  04E4  1003               	clrc
  4224  04E5  0DCF               	rlf	(___ftadd@f1),f
  4225  04E6  0DD0               	rlf	(___ftadd@f1+1),f
  4226  04E7  0DD1               	rlf	(___ftadd@f1+2),f
  4227  04E8  3EFF               	addlw	-1
  4228  04E9  1D03               	skipz
  4229  04EA  2CE4               	goto	u4285
  4230                           	line	122
  4231  04EB  3001               	movlw	low(01h)
  4232  04EC  02DB               	subwf	(___ftadd@exp1),f
  4233                           	line	123
  4234                           	
  4235  04ED                     l4326:	
  4236  04ED  085A               	movf	(___ftadd@exp2),w
  4237  04EE  065B               	xorwf	(___ftadd@exp1),w
  4238  04EF  1903               	skipnz
  4239  04F0  2CF2               	goto	u4291
  4240  04F1  2CF3               	goto	u4290
  4241  04F2                     u4291:
  4242  04F2  2D0B               	goto	l4332
  4243  04F3                     u4290:
  4244                           	
  4245  04F3                     l4328:	
  4246  04F3  3001               	movlw	low(01h)
  4247  04F4  02D9               	subwf	(___ftadd@sign),f
  4248  04F5  0859               	movf	((___ftadd@sign)),w
  4249  04F6  3907               	andlw	07h
  4250  04F7  1D03               	btfss	status,2
  4251  04F8  2CFA               	goto	u4301
  4252  04F9  2CFB               	goto	u4300
  4253  04FA                     u4301:
  4254  04FA  2CE3               	goto	l4324
  4255  04FB                     u4300:
  4256  04FB  2D0B               	goto	l4332
  4257                           	
  4258  04FC                     l1539:	
  4259  04FC  2D0B               	goto	l4332
  4260                           	
  4261  04FD                     l1540:	
  4262                           	line	124
  4263  04FD  2D0B               	goto	l4332
  4264                           	
  4265  04FE                     l1542:	
  4266                           	line	125
  4267                           	
  4268  04FE                     l4330:	
  4269  04FE  3001               	movlw	01h
  4270  04FF                     u4315:
  4271  04FF  1003               	clrc
  4272  0500  0CD4               	rrf	(___ftadd@f2+2),f
  4273  0501  0CD3               	rrf	(___ftadd@f2+1),f
  4274  0502  0CD2               	rrf	(___ftadd@f2),f
  4275  0503  3EFF               	addlw	-1
  4276  0504  1D03               	skipz
  4277  0505  2CFF               	goto	u4315
  4278                           
  4279                           	line	126
  4280  0506  3001               	movlw	(01h)
  4281  0507  00D5               	movwf	(??___ftadd+0)+0
  4282  0508  0855               	movf	(??___ftadd+0)+0,w
  4283  0509  07DA               	addwf	(___ftadd@exp2),f
  4284  050A  2D0B               	goto	l4332
  4285                           	line	127
  4286                           	
  4287  050B                     l1541:	
  4288                           	line	124
  4289                           	
  4290  050B                     l4332:	
  4291  050B  085B               	movf	(___ftadd@exp1),w
  4292  050C  065A               	xorwf	(___ftadd@exp2),w
  4293  050D  1D03               	skipz
  4294  050E  2D10               	goto	u4321
  4295  050F  2D11               	goto	u4320
  4296  0510                     u4321:
  4297  0510  2CFE               	goto	l4330
  4298  0511                     u4320:
  4299  0511  2D13               	goto	l1535
  4300                           	
  4301  0512                     l1543:	
  4302  0512  2D13               	goto	l1535
  4303                           	line	128
  4304                           	
  4305  0513                     l1536:	
  4306                           	line	129
  4307                           	
  4308  0513                     l1535:	
  4309  0513  1FD9               	btfss	(___ftadd@sign),(7)&7
  4310  0514  2D16               	goto	u4331
  4311  0515  2D17               	goto	u4330
  4312  0516                     u4331:
  4313  0516  2D28               	goto	l4336
  4314  0517                     u4330:
  4315                           	line	131
  4316                           	
  4317  0517                     l4334:	
  4318  0517  30FF               	movlw	0FFh
  4319  0518  06CF               	xorwf	(___ftadd@f1),f
  4320  0519  30FF               	movlw	0FFh
  4321  051A  06D0               	xorwf	(___ftadd@f1+1),f
  4322  051B  30FF               	movlw	0FFh
  4323  051C  06D1               	xorwf	(___ftadd@f1+2),f
  4324                           	line	132
  4325  051D  3001               	movlw	01h
  4326  051E  07CF               	addwf	(___ftadd@f1),f
  4327  051F  3000               	movlw	0
  4328  0520  1803               	skipnc
  4329  0521  3001               movlw 1
  4330  0522  07D0               	addwf	(___ftadd@f1+1),f
  4331  0523  3000               	movlw	0
  4332  0524  1803               	skipnc
  4333  0525  3001               movlw 1
  4334  0526  07D1               	addwf	(___ftadd@f1+2),f
  4335  0527  2D28               	goto	l4336
  4336                           	line	133
  4337                           	
  4338  0528                     l1544:	
  4339                           	line	134
  4340                           	
  4341  0528                     l4336:	
  4342  0528  1F59               	btfss	(___ftadd@sign),(6)&7
  4343  0529  2D2B               	goto	u4341
  4344  052A  2D2C               	goto	u4340
  4345  052B                     u4341:
  4346  052B  2D3D               	goto	l4340
  4347  052C                     u4340:
  4348                           	line	136
  4349                           	
  4350  052C                     l4338:	
  4351  052C  30FF               	movlw	0FFh
  4352  052D  06D2               	xorwf	(___ftadd@f2),f
  4353  052E  30FF               	movlw	0FFh
  4354  052F  06D3               	xorwf	(___ftadd@f2+1),f
  4355  0530  30FF               	movlw	0FFh
  4356  0531  06D4               	xorwf	(___ftadd@f2+2),f
  4357                           	line	137
  4358  0532  3001               	movlw	01h
  4359  0533  07D2               	addwf	(___ftadd@f2),f
  4360  0534  3000               	movlw	0
  4361  0535  1803               	skipnc
  4362  0536  3001               movlw 1
  4363  0537  07D3               	addwf	(___ftadd@f2+1),f
  4364  0538  3000               	movlw	0
  4365  0539  1803               	skipnc
  4366  053A  3001               movlw 1
  4367  053B  07D4               	addwf	(___ftadd@f2+2),f
  4368  053C  2D3D               	goto	l4340
  4369                           	line	138
  4370                           	
  4371  053D                     l1545:	
  4372                           	line	139
  4373                           	
  4374  053D                     l4340:	
  4375  053D  01D9               	clrf	(___ftadd@sign)
  4376                           	line	140
  4377  053E  084F               	movf	(___ftadd@f1),w
  4378  053F  07D2               	addwf	(___ftadd@f2),f
  4379  0540  0850               	movf	(___ftadd@f1+1),w
  4380  0541  1103               	clrz
  4381  0542  1803               	skipnc
  4382  0543  0A50               	incf	(___ftadd@f1+1),w
  4383  0544  1903               	skipnz
  4384  0545  2D47               	goto	u4351
  4385  0546  07D3               	addwf	(___ftadd@f2+1),f
  4386  0547                     u4351:
  4387  0547  0851               	movf	(___ftadd@f1+2),w
  4388  0548  1103               	clrz
  4389  0549  1803               	skipnc
  4390  054A  0A51               	incf	(___ftadd@f1+2),w
  4391  054B  1903               	skipnz
  4392  054C  2D4E               	goto	u4352
  4393  054D  07D4               	addwf	(___ftadd@f2+2),f
  4394  054E                     u4352:
  4395                           
  4396                           	line	141
  4397                           	
  4398  054E                     l4342:	
  4399  054E  1FD4               	btfss	(___ftadd@f2+2),(23)&7
  4400  054F  2D51               	goto	u4361
  4401  0550  2D52               	goto	u4360
  4402  0551                     u4361:
  4403  0551  2D66               	goto	l4348
  4404  0552                     u4360:
  4405                           	line	142
  4406                           	
  4407  0552                     l4344:	
  4408  0552  30FF               	movlw	0FFh
  4409  0553  06D2               	xorwf	(___ftadd@f2),f
  4410  0554  30FF               	movlw	0FFh
  4411  0555  06D3               	xorwf	(___ftadd@f2+1),f
  4412  0556  30FF               	movlw	0FFh
  4413  0557  06D4               	xorwf	(___ftadd@f2+2),f
  4414                           	line	143
  4415  0558  3001               	movlw	01h
  4416  0559  07D2               	addwf	(___ftadd@f2),f
  4417  055A  3000               	movlw	0
  4418  055B  1803               	skipnc
  4419  055C  3001               movlw 1
  4420  055D  07D3               	addwf	(___ftadd@f2+1),f
  4421  055E  3000               	movlw	0
  4422  055F  1803               	skipnc
  4423  0560  3001               movlw 1
  4424  0561  07D4               	addwf	(___ftadd@f2+2),f
  4425                           	line	144
  4426                           	
  4427  0562                     l4346:	
  4428  0562  01D9               	clrf	(___ftadd@sign)
  4429  0563  1403               	bsf	status,0
  4430  0564  0DD9               	rlf	(___ftadd@sign),f
  4431  0565  2D66               	goto	l4348
  4432                           	line	145
  4433                           	
  4434  0566                     l1546:	
  4435                           	line	146
  4436                           	
  4437  0566                     l4348:	
  4438  0566  0852               	movf	(___ftadd@f2),w
  4439  0567  00A0               	movwf	(?___ftpack)
  4440  0568  0853               	movf	(___ftadd@f2+1),w
  4441  0569  00A1               	movwf	(?___ftpack+1)
  4442  056A  0854               	movf	(___ftadd@f2+2),w
  4443  056B  00A2               	movwf	(?___ftpack+2)
  4444  056C  085B               	movf	(___ftadd@exp1),w
  4445  056D  00D5               	movwf	(??___ftadd+0)+0
  4446  056E  0855               	movf	(??___ftadd+0)+0,w
  4447  056F  00A3               	movwf	0+(?___ftpack)+03h
  4448  0570  0859               	movf	(___ftadd@sign),w
  4449  0571  00D6               	movwf	(??___ftadd+1)+0
  4450  0572  0856               	movf	(??___ftadd+1)+0,w
  4451  0573  00A4               	movwf	0+(?___ftpack)+04h
  4452  0574  120A  158A  25E1   	fcall	___ftpack
              120A  118A         
  4453  0579  1283               	bcf	status, 5	;RP0=0, select bank0
  4454  057A  1303               	bcf	status, 6	;RP1=0, select bank0
  4455  057B  0820               	movf	(0+(?___ftpack)),w
  4456  057C  00CF               	movwf	(?___ftadd)
  4457  057D  0821               	movf	(1+(?___ftpack)),w
  4458  057E  00D0               	movwf	(?___ftadd+1)
  4459  057F  0822               	movf	(2+(?___ftpack)),w
  4460  0580  00D1               	movwf	(?___ftadd+2)
  4461  0581  2D82               	goto	l1521
  4462                           	
  4463  0582                     l4350:	
  4464                           	line	148
  4465                           	
  4466  0582                     l1521:	
  4467  0582  0008               	return
  4468                           	opt stack 0
  4469                           GLOBAL	__end_of___ftadd
  4470  0583                     	__end_of___ftadd:
  4471 ;; =============== function ___ftadd ends ============
  4472                           
  4473                           	signat	___ftadd,8315
  4474                           	global	_lcd_command
  4475                           psect	text779,local,class=CODE,delta=2
  4476                           global __ptext779
  4477  0F74                     __ptext779:
  4478                           
  4479 ;; *************** function _lcd_command *****************
  4480 ;; Defined at:
  4481 ;;		line 160 in file "C:\Users\may\OneDrive\WeiJi\Mplab_workspace\work_together1\Untitled.c"
  4482 ;; Parameters:    Size  Location     Type
  4483 ;;  cmd             1    wreg     unsigned char 
  4484 ;; Auto vars:     Size  Location     Type
  4485 ;;  cmd             1    7[BANK0 ] unsigned char 
  4486 ;; Return value:  Size  Location     Type
  4487 ;;		None               void
  4488 ;; Registers used:
  4489 ;;		wreg, status,2, status,0, pclath, cstack
  4490 ;; Tracked objects:
  4491 ;;		On entry : 0/0
  4492 ;;		On exit  : 0/0
  4493 ;;		Unchanged: 0/0
  4494 ;; Data sizes:     COMMON   BANK0   BANK1   BANK3   BANK2
  4495 ;;      Params:         0       0       0       0       0
  4496 ;;      Locals:         0       1       0       0       0
  4497 ;;      Temps:          0       1       0       0       0
  4498 ;;      Totals:         0       2       0       0       0
  4499 ;;Total ram usage:        2 bytes
  4500 ;; Hardware stack levels used:    1
  4501 ;; Hardware stack levels required when called:    2
  4502 ;; This function calls:
  4503 ;;		_delay_ms
  4504 ;; This function is called by:
  4505 ;;		_lcd_init
  4506 ;;		_lcd_clear
  4507 ;; This function uses a non-reentrant model
  4508 ;;
  4509                           psect	text779
  4510                           	file	"C:\Users\may\OneDrive\WeiJi\Mplab_workspace\work_together1\Untitled.c"
  4511                           	line	160
  4512                           	global	__size_of_lcd_command
  4513  008C                     	__size_of_lcd_command	equ	__end_of_lcd_command-_lcd_command
  4514                           	
  4515  0F74                     _lcd_command:	
  4516                           	opt	stack 4
  4517                           ; Regs used in _lcd_command: [wreg+status,2+status,0+pclath+cstack]
  4518                           ;lcd_command@cmd stored from wreg
  4519  0F74  1283               	bcf	status, 5	;RP0=0, select bank0
  4520  0F75  1303               	bcf	status, 6	;RP1=0, select bank0
  4521  0F76  00A7               	movwf	(lcd_command@cmd)
  4522                           	line	161
  4523                           	
  4524  0F77                     l4264:	
  4525                           ;Untitled.c: 161: PORTDbits.RD0 = 0;
  4526  0F77  1008               	bcf	(8),0	;volatile
  4527                           	line	162
  4528                           ;Untitled.c: 162: PORTDbits.RD1 = 0;
  4529  0F78  1088               	bcf	(8),1	;volatile
  4530                           	line	163
  4531                           ;Untitled.c: 163: PORTDbits.RD2 = 1;
  4532  0F79  1508               	bsf	(8),2	;volatile
  4533                           	line	164
  4534                           	
  4535  0F7A                     l4266:	
  4536                           ;Untitled.c: 164: PORTDbits.RD4 = (cmd & 0x10) ? 1 : 0;
  4537  0F7A  3000               	movlw	0
  4538  0F7B  1A27               	btfsc	(lcd_command@cmd),(4)&7
  4539  0F7C  3001               	movlw	1
  4540  0F7D  00A6               	movwf	(??_lcd_command+0)+0
  4541  0F7E  0EA6               	swapf	(??_lcd_command+0)+0,f
  4542  0F7F  0808               	movf	(8),w	;volatile
  4543  0F80  0626               	xorwf	(??_lcd_command+0)+0,w
  4544  0F81  39EF               	andlw	not (((1<<1)-1)<<4)
  4545  0F82  0626               	xorwf	(??_lcd_command+0)+0,w
  4546  0F83  0088               	movwf	(8)	;volatile
  4547                           	line	165
  4548                           ;Untitled.c: 165: PORTDbits.RD5 = (cmd & 0x20) ? 1 : 0;
  4549  0F84  3000               	movlw	0
  4550  0F85  1AA7               	btfsc	(lcd_command@cmd),(5)&7
  4551  0F86  3001               	movlw	1
  4552  0F87  00A6               	movwf	(??_lcd_command+0)+0
  4553  0F88  0EA6               	swapf	(??_lcd_command+0)+0,f
  4554  0F89  0DA6               	rlf	(??_lcd_command+0)+0,f
  4555  0F8A  0808               	movf	(8),w	;volatile
  4556  0F8B  0626               	xorwf	(??_lcd_command+0)+0,w
  4557  0F8C  39DF               	andlw	not (((1<<1)-1)<<5)
  4558  0F8D  0626               	xorwf	(??_lcd_command+0)+0,w
  4559  0F8E  0088               	movwf	(8)	;volatile
  4560                           	line	166
  4561                           ;Untitled.c: 166: PORTDbits.RD6 = (cmd & 0x40) ? 1 : 0;
  4562  0F8F  3000               	movlw	0
  4563  0F90  1B27               	btfsc	(lcd_command@cmd),(6)&7
  4564  0F91  3001               	movlw	1
  4565  0F92  00A6               	movwf	(??_lcd_command+0)+0
  4566  0F93  0EA6               	swapf	(??_lcd_command+0)+0,f
  4567  0F94  0DA6               	rlf	(??_lcd_command+0)+0,f
  4568  0F95  0DA6               	rlf	(??_lcd_command+0)+0,f
  4569  0F96  0808               	movf	(8),w	;volatile
  4570  0F97  0626               	xorwf	(??_lcd_command+0)+0,w
  4571  0F98  39BF               	andlw	not (((1<<1)-1)<<6)
  4572  0F99  0626               	xorwf	(??_lcd_command+0)+0,w
  4573  0F9A  0088               	movwf	(8)	;volatile
  4574                           	line	167
  4575                           ;Untitled.c: 167: PORTDbits.RD7 = (cmd & 0x80) ? 1 : 0;
  4576  0F9B  3000               	movlw	0
  4577  0F9C  1BA7               	btfsc	(lcd_command@cmd),(7)&7
  4578  0F9D  3001               	movlw	1
  4579  0F9E  00A6               	movwf	(??_lcd_command+0)+0
  4580  0F9F  0CA6               	rrf	(??_lcd_command+0)+0,f
  4581  0FA0  0CA6               	rrf	(??_lcd_command+0)+0,f
  4582  0FA1  0808               	movf	(8),w	;volatile
  4583  0FA2  0626               	xorwf	(??_lcd_command+0)+0,w
  4584  0FA3  397F               	andlw	not (((1<<1)-1)<<7)
  4585  0FA4  0626               	xorwf	(??_lcd_command+0)+0,w
  4586  0FA5  0088               	movwf	(8)	;volatile
  4587                           	line	168
  4588                           	
  4589  0FA6                     l4268:	
  4590                           ;Untitled.c: 168: delay_ms(1);
  4591  0FA6  3001               	movlw	low(01h)
  4592  0FA7  00A0               	movwf	(?_delay_ms)
  4593  0FA8  3000               	movlw	high(01h)
  4594  0FA9  00A1               	movwf	((?_delay_ms))+1
  4595  0FAA  120A  158A  232C   	fcall	_delay_ms
              120A  158A         
  4596                           	line	169
  4597                           	
  4598  0FAF                     l4270:	
  4599                           ;Untitled.c: 169: PORTDbits.RD2 = 0;
  4600  0FAF  1283               	bcf	status, 5	;RP0=0, select bank0
  4601  0FB0  1303               	bcf	status, 6	;RP1=0, select bank0
  4602  0FB1  1108               	bcf	(8),2	;volatile
  4603                           	line	170
  4604                           	
  4605  0FB2                     l4272:	
  4606                           ;Untitled.c: 170: delay_ms(1);
  4607  0FB2  3001               	movlw	low(01h)
  4608  0FB3  00A0               	movwf	(?_delay_ms)
  4609  0FB4  3000               	movlw	high(01h)
  4610  0FB5  00A1               	movwf	((?_delay_ms))+1
  4611  0FB6  120A  158A  232C   	fcall	_delay_ms
              120A  158A         
  4612                           	line	172
  4613                           	
  4614  0FBB                     l4274:	
  4615                           ;Untitled.c: 172: PORTDbits.RD2 = 1;
  4616  0FBB  1283               	bcf	status, 5	;RP0=0, select bank0
  4617  0FBC  1303               	bcf	status, 6	;RP1=0, select bank0
  4618  0FBD  1508               	bsf	(8),2	;volatile
  4619                           	line	173
  4620                           ;Untitled.c: 173: PORTDbits.RD4 = (cmd & 0x01) ? 1 : 0;
  4621  0FBE  3000               	movlw	0
  4622  0FBF  1827               	btfsc	(lcd_command@cmd),(0)&7
  4623  0FC0  3001               	movlw	1
  4624  0FC1  00A6               	movwf	(??_lcd_command+0)+0
  4625  0FC2  0EA6               	swapf	(??_lcd_command+0)+0,f
  4626  0FC3  0808               	movf	(8),w	;volatile
  4627  0FC4  0626               	xorwf	(??_lcd_command+0)+0,w
  4628  0FC5  39EF               	andlw	not (((1<<1)-1)<<4)
  4629  0FC6  0626               	xorwf	(??_lcd_command+0)+0,w
  4630  0FC7  0088               	movwf	(8)	;volatile
  4631                           	line	174
  4632                           ;Untitled.c: 174: PORTDbits.RD5 = (cmd & 0x02) ? 1 : 0;
  4633  0FC8  3000               	movlw	0
  4634  0FC9  18A7               	btfsc	(lcd_command@cmd),(1)&7
  4635  0FCA  3001               	movlw	1
  4636  0FCB  00A6               	movwf	(??_lcd_command+0)+0
  4637  0FCC  0EA6               	swapf	(??_lcd_command+0)+0,f
  4638  0FCD  0DA6               	rlf	(??_lcd_command+0)+0,f
  4639  0FCE  0808               	movf	(8),w	;volatile
  4640  0FCF  0626               	xorwf	(??_lcd_command+0)+0,w
  4641  0FD0  39DF               	andlw	not (((1<<1)-1)<<5)
  4642  0FD1  0626               	xorwf	(??_lcd_command+0)+0,w
  4643  0FD2  0088               	movwf	(8)	;volatile
  4644                           	line	175
  4645                           ;Untitled.c: 175: PORTDbits.RD6 = (cmd & 0x04) ? 1 : 0;
  4646  0FD3  3000               	movlw	0
  4647  0FD4  1927               	btfsc	(lcd_command@cmd),(2)&7
  4648  0FD5  3001               	movlw	1
  4649  0FD6  00A6               	movwf	(??_lcd_command+0)+0
  4650  0FD7  0EA6               	swapf	(??_lcd_command+0)+0,f
  4651  0FD8  0DA6               	rlf	(??_lcd_command+0)+0,f
  4652  0FD9  0DA6               	rlf	(??_lcd_command+0)+0,f
  4653  0FDA  0808               	movf	(8),w	;volatile
  4654  0FDB  0626               	xorwf	(??_lcd_command+0)+0,w
  4655  0FDC  39BF               	andlw	not (((1<<1)-1)<<6)
  4656  0FDD  0626               	xorwf	(??_lcd_command+0)+0,w
  4657  0FDE  0088               	movwf	(8)	;volatile
  4658                           	line	176
  4659                           ;Untitled.c: 176: PORTDbits.RD7 = (cmd & 0x08) ? 1 : 0;
  4660  0FDF  3000               	movlw	0
  4661  0FE0  19A7               	btfsc	(lcd_command@cmd),(3)&7
  4662  0FE1  3001               	movlw	1
  4663  0FE2  00A6               	movwf	(??_lcd_command+0)+0
  4664  0FE3  0CA6               	rrf	(??_lcd_command+0)+0,f
  4665  0FE4  0CA6               	rrf	(??_lcd_command+0)+0,f
  4666  0FE5  0808               	movf	(8),w	;volatile
  4667  0FE6  0626               	xorwf	(??_lcd_command+0)+0,w
  4668  0FE7  397F               	andlw	not (((1<<1)-1)<<7)
  4669  0FE8  0626               	xorwf	(??_lcd_command+0)+0,w
  4670  0FE9  0088               	movwf	(8)	;volatile
  4671                           	line	177
  4672                           	
  4673  0FEA                     l4276:	
  4674                           ;Untitled.c: 177: delay_ms(1);
  4675  0FEA  3001               	movlw	low(01h)
  4676  0FEB  00A0               	movwf	(?_delay_ms)
  4677  0FEC  3000               	movlw	high(01h)
  4678  0FED  00A1               	movwf	((?_delay_ms))+1
  4679  0FEE  120A  158A  232C   	fcall	_delay_ms
              120A  158A         
  4680                           	line	178
  4681                           	
  4682  0FF3                     l4278:	
  4683                           ;Untitled.c: 178: PORTDbits.RD2 = 0;
  4684  0FF3  1283               	bcf	status, 5	;RP0=0, select bank0
  4685  0FF4  1303               	bcf	status, 6	;RP1=0, select bank0
  4686  0FF5  1108               	bcf	(8),2	;volatile
  4687                           	line	179
  4688                           	
  4689  0FF6                     l4280:	
  4690                           ;Untitled.c: 179: delay_ms(2);
  4691  0FF6  3002               	movlw	low(02h)
  4692  0FF7  00A0               	movwf	(?_delay_ms)
  4693  0FF8  3000               	movlw	high(02h)
  4694  0FF9  00A1               	movwf	((?_delay_ms))+1
  4695  0FFA  120A  158A  232C   	fcall	_delay_ms
              120A  158A         
  4696                           	line	180
  4697                           	
  4698  0FFF                     l744:	
  4699  0FFF  0008               	return
  4700                           	opt stack 0
  4701                           GLOBAL	__end_of_lcd_command
  4702  1000                     	__end_of_lcd_command:
  4703 ;; =============== function _lcd_command ends ============
  4704                           
  4705                           	signat	_lcd_command,4216
  4706                           	global	_keyboard_scan
  4707                           psect	text780,local,class=CODE,delta=2
  4708                           global __ptext780
  4709  0E5E                     __ptext780:
  4710                           
  4711 ;; *************** function _keyboard_scan *****************
  4712 ;; Defined at:
  4713 ;;		line 266 in file "C:\Users\may\OneDrive\WeiJi\Mplab_workspace\work_together1\Untitled.c"
  4714 ;; Parameters:    Size  Location     Type
  4715 ;;		None
  4716 ;; Auto vars:     Size  Location     Type
  4717 ;;  col_val         1   14[BANK0 ] unsigned char 
  4718 ;;  row_pins        4    8[BANK0 ] unsigned char [4]
  4719 ;;  row             1   15[BANK0 ] unsigned char 
  4720 ;;  col             1   13[BANK0 ] unsigned char 
  4721 ;;  result          1   12[BANK0 ] unsigned char 
  4722 ;; Return value:  Size  Location     Type
  4723 ;;                  1    wreg      unsigned char 
  4724 ;; Registers used:
  4725 ;;		wreg, fsr0l, fsr0h, status,2, status,0, pclath, cstack
  4726 ;; Tracked objects:
  4727 ;;		On entry : 0/0
  4728 ;;		On exit  : 0/0
  4729 ;;		Unchanged: 0/0
  4730 ;; Data sizes:     COMMON   BANK0   BANK1   BANK3   BANK2
  4731 ;;      Params:         0       0       0       0       0
  4732 ;;      Locals:         0       8       0       0       0
  4733 ;;      Temps:          0       2       0       0       0
  4734 ;;      Totals:         0      10       0       0       0
  4735 ;;Total ram usage:       10 bytes
  4736 ;; Hardware stack levels used:    1
  4737 ;; Hardware stack levels required when called:    2
  4738 ;; This function calls:
  4739 ;;		_delay_ms
  4740 ;; This function is called by:
  4741 ;;		_main
  4742 ;; This function uses a non-reentrant model
  4743 ;;
  4744                           psect	text780
  4745                           	file	"C:\Users\may\OneDrive\WeiJi\Mplab_workspace\work_together1\Untitled.c"
  4746                           	line	266
  4747                           	global	__size_of_keyboard_scan
  4748  008A                     	__size_of_keyboard_scan	equ	__end_of_keyboard_scan-_keyboard_scan
  4749                           	
  4750  0E5E                     _keyboard_scan:	
  4751                           	opt	stack 5
  4752                           ; Regs used in _keyboard_scan: [wreg-fsr0h+status,2+status,0+pclath+cstack]
  4753                           	line	267
  4754                           	
  4755  0E5E                     l4220:	
  4756                           ;Untitled.c: 267: unsigned char row, col, result = 0xFF;
  4757  0E5E  30FF               	movlw	(0FFh)
  4758  0E5F  1283               	bcf	status, 5	;RP0=0, select bank0
  4759  0E60  1303               	bcf	status, 6	;RP1=0, select bank0
  4760  0E61  00A6               	movwf	(??_keyboard_scan+0)+0
  4761  0E62  0826               	movf	(??_keyboard_scan+0)+0,w
  4762  0E63  00AC               	movwf	(keyboard_scan@result)
  4763                           	line	268
  4764                           ;Untitled.c: 268: unsigned char row_pins[] = {0xEF, 0xDF, 0xBF, 0x7F};
  4765  0E64  086C               	movf	(keyboard_scan@F1153+3),w
  4766  0E65  00AB               	movwf	(keyboard_scan@row_pins+3)
  4767  0E66  086B               	movf	(keyboard_scan@F1153+2),w
  4768  0E67  00AA               	movwf	(keyboard_scan@row_pins+2)
  4769  0E68  086A               	movf	(keyboard_scan@F1153+1),w
  4770  0E69  00A9               	movwf	(keyboard_scan@row_pins+1)
  4771  0E6A  0869               	movf	(keyboard_scan@F1153),w
  4772  0E6B  00A8               	movwf	(keyboard_scan@row_pins)
  4773                           
  4774                           	line	270
  4775                           	
  4776  0E6C                     l4222:	
  4777                           ;Untitled.c: 270: for (row = 0; row < 4; row++) {
  4778  0E6C  01AF               	clrf	(keyboard_scan@row)
  4779  0E6D  3004               	movlw	(04h)
  4780  0E6E  022F               	subwf	(keyboard_scan@row),w
  4781  0E6F  1C03               	skipc
  4782  0E70  2E72               	goto	u4071
  4783  0E71  2E73               	goto	u4070
  4784  0E72                     u4071:
  4785  0E72  2E75               	goto	l4226
  4786  0E73                     u4070:
  4787  0E73  2EE5               	goto	l4260
  4788                           	
  4789  0E74                     l4224:	
  4790  0E74  2EE5               	goto	l4260
  4791                           	
  4792  0E75                     l779:	
  4793                           	line	271
  4794                           	
  4795  0E75                     l4226:	
  4796                           ;Untitled.c: 271: PORTB = row_pins[row];
  4797  0E75  082F               	movf	(keyboard_scan@row),w
  4798  0E76  3E28               	addlw	keyboard_scan@row_pins&0ffh
  4799  0E77  0084               	movwf	fsr0
  4800  0E78  1383               	bcf	status, 7	;select IRP bank0
  4801  0E79  0800               	movf	indf,w
  4802  0E7A  0086               	movwf	(6)	;volatile
  4803                           	line	272
  4804                           	
  4805  0E7B                     l4228:	
  4806                           # 272 "C:\Users\may\OneDrive\WeiJi\Mplab_workspace\work_together1\Untitled.c"
  4807  0E7B  0000               nop ;#
  4808                           psect	text780
  4809                           	line	273
  4810                           	
  4811  0E7C                     l4230:	
  4812                           ;Untitled.c: 273: unsigned char col_val = PORTB & 0x0F;
  4813  0E7C  1283               	bcf	status, 5	;RP0=0, select bank0
  4814  0E7D  1303               	bcf	status, 6	;RP1=0, select bank0
  4815  0E7E  0806               	movf	(6),w
  4816  0E7F  390F               	andlw	0Fh
  4817  0E80  00A6               	movwf	(??_keyboard_scan+0)+0
  4818  0E81  0826               	movf	(??_keyboard_scan+0)+0,w
  4819  0E82  00AE               	movwf	(keyboard_scan@col_val)
  4820                           	line	275
  4821                           	
  4822  0E83                     l4232:	
  4823                           ;Untitled.c: 275: if (col_val != 0x0F) {
  4824  0E83  082E               	movf	(keyboard_scan@col_val),w
  4825  0E84  3A0F               	xorlw	0Fh
  4826  0E85  1903               	skipnz
  4827  0E86  2E88               	goto	u4081
  4828  0E87  2E89               	goto	u4080
  4829  0E88                     u4081:
  4830  0E88  2EDA               	goto	l4256
  4831  0E89                     u4080:
  4832                           	line	277
  4833                           	
  4834  0E89                     l4234:	
  4835                           ;Untitled.c: 277: delay_ms(10);
  4836  0E89  300A               	movlw	low(0Ah)
  4837  0E8A  00A0               	movwf	(?_delay_ms)
  4838  0E8B  3000               	movlw	high(0Ah)
  4839  0E8C  00A1               	movwf	((?_delay_ms))+1
  4840  0E8D  120A  158A  232C   	fcall	_delay_ms
              120A  158A         
  4841                           	line	278
  4842                           	
  4843  0E92                     l4236:	
  4844                           ;Untitled.c: 278: col_val = PORTB & 0x0F;
  4845  0E92  1283               	bcf	status, 5	;RP0=0, select bank0
  4846  0E93  1303               	bcf	status, 6	;RP1=0, select bank0
  4847  0E94  0806               	movf	(6),w
  4848  0E95  390F               	andlw	0Fh
  4849  0E96  00A6               	movwf	(??_keyboard_scan+0)+0
  4850  0E97  0826               	movf	(??_keyboard_scan+0)+0,w
  4851  0E98  00AE               	movwf	(keyboard_scan@col_val)
  4852                           	line	279
  4853                           	
  4854  0E99                     l4238:	
  4855                           ;Untitled.c: 279: if (col_val != 0x0F) {
  4856  0E99  082E               	movf	(keyboard_scan@col_val),w
  4857  0E9A  3A0F               	xorlw	0Fh
  4858  0E9B  1903               	skipnz
  4859  0E9C  2E9E               	goto	u4091
  4860  0E9D  2E9F               	goto	u4090
  4861  0E9E                     u4091:
  4862  0E9E  2EDA               	goto	l4256
  4863  0E9F                     u4090:
  4864  0E9F  2EB6               	goto	l4250
  4865                           	line	281
  4866                           	
  4867  0EA0                     l4240:	
  4868                           ;Untitled.c: 281: switch (col_val) {
  4869  0EA0  2EB6               	goto	l4250
  4870                           	line	282
  4871                           ;Untitled.c: 282: case 0x0E: col = 0; break;
  4872                           	
  4873  0EA1                     l784:	
  4874  0EA1  01AD               	clrf	(keyboard_scan@col)
  4875  0EA2  2EC4               	goto	l4252
  4876                           	line	283
  4877                           ;Untitled.c: 283: case 0x0D: col = 1; break;
  4878                           	
  4879  0EA3                     l786:	
  4880                           	
  4881  0EA3                     l4242:	
  4882  0EA3  01AD               	clrf	(keyboard_scan@col)
  4883  0EA4  1403               	bsf	status,0
  4884  0EA5  0DAD               	rlf	(keyboard_scan@col),f
  4885  0EA6  2EC4               	goto	l4252
  4886                           	line	284
  4887                           ;Untitled.c: 284: case 0x0B: col = 2; break;
  4888                           	
  4889  0EA7                     l787:	
  4890                           	
  4891  0EA7                     l4244:	
  4892  0EA7  3002               	movlw	(02h)
  4893  0EA8  00A6               	movwf	(??_keyboard_scan+0)+0
  4894  0EA9  0826               	movf	(??_keyboard_scan+0)+0,w
  4895  0EAA  00AD               	movwf	(keyboard_scan@col)
  4896  0EAB  2EC4               	goto	l4252
  4897                           	line	285
  4898                           ;Untitled.c: 285: case 0x07: col = 3; break;
  4899                           	
  4900  0EAC                     l788:	
  4901                           	
  4902  0EAC                     l4246:	
  4903  0EAC  3003               	movlw	(03h)
  4904  0EAD  00A6               	movwf	(??_keyboard_scan+0)+0
  4905  0EAE  0826               	movf	(??_keyboard_scan+0)+0,w
  4906  0EAF  00AD               	movwf	(keyboard_scan@col)
  4907  0EB0  2EC4               	goto	l4252
  4908                           	line	286
  4909                           ;Untitled.c: 286: default: col = 0xFF;
  4910                           	
  4911  0EB1                     l789:	
  4912                           	
  4913  0EB1                     l4248:	
  4914  0EB1  30FF               	movlw	(0FFh)
  4915  0EB2  00A6               	movwf	(??_keyboard_scan+0)+0
  4916  0EB3  0826               	movf	(??_keyboard_scan+0)+0,w
  4917  0EB4  00AD               	movwf	(keyboard_scan@col)
  4918                           	line	287
  4919                           ;Untitled.c: 287: }
  4920  0EB5  2EC4               	goto	l4252
  4921                           	line	281
  4922                           	
  4923  0EB6                     l783:	
  4924                           	
  4925  0EB6                     l4250:	
  4926  0EB6  082E               	movf	(keyboard_scan@col_val),w
  4927                           	; Switch size 1, requested type "space"
  4928                           ; Number of cases is 4, Range of values is 7 to 14
  4929                           ; switch strategies available:
  4930                           ; Name         Instructions Cycles
  4931                           ; simple_byte           13     7 (average)
  4932                           ; direct_byte           35    11 (fixed)
  4933                           ; jumptable            263     9 (fixed)
  4934                           ;	Chosen strategy is simple_byte
  4935                           
  4936                           	opt asmopt_off
  4937  0EB7  3A07               	xorlw	7^0	; case 7
  4938  0EB8  1903               	skipnz
  4939  0EB9  2EAC               	goto	l4246
  4940  0EBA  3A0C               	xorlw	11^7	; case 11
  4941  0EBB  1903               	skipnz
  4942  0EBC  2EA7               	goto	l4244
  4943  0EBD  3A06               	xorlw	13^11	; case 13
  4944  0EBE  1903               	skipnz
  4945  0EBF  2EA3               	goto	l4242
  4946  0EC0  3A03               	xorlw	14^13	; case 14
  4947  0EC1  1903               	skipnz
  4948  0EC2  2EA1               	goto	l784
  4949  0EC3  2EB1               	goto	l4248
  4950                           	opt asmopt_on
  4951                           
  4952                           	line	287
  4953                           	
  4954  0EC4                     l785:	
  4955                           	line	288
  4956                           	
  4957  0EC4                     l4252:	
  4958                           ;Untitled.c: 288: if (col != 0xFF) {
  4959  0EC4  082D               	movf	(keyboard_scan@col),w
  4960  0EC5  3AFF               	xorlw	0FFh
  4961  0EC6  1903               	skipnz
  4962  0EC7  2EC9               	goto	u4101
  4963  0EC8  2ECA               	goto	u4100
  4964  0EC9                     u4101:
  4965  0EC9  2EDA               	goto	l4256
  4966  0ECA                     u4100:
  4967                           	line	289
  4968                           	
  4969  0ECA                     l4254:	
  4970                           ;Untitled.c: 289: result = row * 4 + col;
  4971  0ECA  082F               	movf	(keyboard_scan@row),w
  4972  0ECB  00A6               	movwf	(??_keyboard_scan+0)+0
  4973  0ECC  3002               	movlw	02h
  4974  0ECD                     u4115:
  4975  0ECD  1003               	clrc
  4976  0ECE  0DA6               	rlf	(??_keyboard_scan+0)+0,f
  4977  0ECF  3EFF               	addlw	-1
  4978  0ED0  1D03               	skipz
  4979  0ED1  2ECD               	goto	u4115
  4980  0ED2  082D               	movf	(keyboard_scan@col),w
  4981  0ED3  0726               	addwf	0+(??_keyboard_scan+0)+0,w
  4982  0ED4  00A7               	movwf	(??_keyboard_scan+1)+0
  4983  0ED5  0827               	movf	(??_keyboard_scan+1)+0,w
  4984  0ED6  00AC               	movwf	(keyboard_scan@result)
  4985                           	line	290
  4986                           ;Untitled.c: 290: break;
  4987  0ED7  2EE5               	goto	l4260
  4988                           	line	291
  4989                           	
  4990  0ED8                     l790:	
  4991  0ED8  2EDA               	goto	l4256
  4992                           	line	292
  4993                           	
  4994  0ED9                     l782:	
  4995  0ED9  2EDA               	goto	l4256
  4996                           	line	293
  4997                           	
  4998  0EDA                     l781:	
  4999                           	line	270
  5000                           	
  5001  0EDA                     l4256:	
  5002  0EDA  3001               	movlw	(01h)
  5003  0EDB  00A6               	movwf	(??_keyboard_scan+0)+0
  5004  0EDC  0826               	movf	(??_keyboard_scan+0)+0,w
  5005  0EDD  07AF               	addwf	(keyboard_scan@row),f
  5006                           	
  5007  0EDE                     l4258:	
  5008  0EDE  3004               	movlw	(04h)
  5009  0EDF  022F               	subwf	(keyboard_scan@row),w
  5010  0EE0  1C03               	skipc
  5011  0EE1  2EE3               	goto	u4121
  5012  0EE2  2EE4               	goto	u4120
  5013  0EE3                     u4121:
  5014  0EE3  2E75               	goto	l4226
  5015  0EE4                     u4120:
  5016  0EE4  2EE5               	goto	l4260
  5017                           	
  5018  0EE5                     l780:	
  5019                           	line	295
  5020                           	
  5021  0EE5                     l4260:	
  5022                           ;Untitled.c: 291: }
  5023                           ;Untitled.c: 292: }
  5024                           ;Untitled.c: 293: }
  5025                           ;Untitled.c: 294: }
  5026                           ;Untitled.c: 295: return result;
  5027  0EE5  082C               	movf	(keyboard_scan@result),w
  5028  0EE6  2EE7               	goto	l791
  5029                           	
  5030  0EE7                     l4262:	
  5031                           	line	296
  5032                           	
  5033  0EE7                     l791:	
  5034  0EE7  0008               	return
  5035                           	opt stack 0
  5036                           GLOBAL	__end_of_keyboard_scan
  5037  0EE8                     	__end_of_keyboard_scan:
  5038 ;; =============== function _keyboard_scan ends ============
  5039                           
  5040                           	signat	_keyboard_scan,89
  5041                           	global	_lcd_data
  5042                           psect	text781,local,class=CODE,delta=2
  5043                           global __ptext781
  5044  0EE8                     __ptext781:
  5045                           
  5046 ;; *************** function _lcd_data *****************
  5047 ;; Defined at:
  5048 ;;		line 183 in file "C:\Users\may\OneDrive\WeiJi\Mplab_workspace\work_together1\Untitled.c"
  5049 ;; Parameters:    Size  Location     Type
  5050 ;;  data            1    wreg     unsigned char 
  5051 ;; Auto vars:     Size  Location     Type
  5052 ;;  data            1    7[BANK0 ] unsigned char 
  5053 ;; Return value:  Size  Location     Type
  5054 ;;		None               void
  5055 ;; Registers used:
  5056 ;;		wreg, status,2, status,0, pclath, cstack
  5057 ;; Tracked objects:
  5058 ;;		On entry : 0/0
  5059 ;;		On exit  : 0/0
  5060 ;;		Unchanged: 0/0
  5061 ;; Data sizes:     COMMON   BANK0   BANK1   BANK3   BANK2
  5062 ;;      Params:         0       0       0       0       0
  5063 ;;      Locals:         0       1       0       0       0
  5064 ;;      Temps:          0       1       0       0       0
  5065 ;;      Totals:         0       2       0       0       0
  5066 ;;Total ram usage:        2 bytes
  5067 ;; Hardware stack levels used:    1
  5068 ;; Hardware stack levels required when called:    2
  5069 ;; This function calls:
  5070 ;;		_delay_ms
  5071 ;; This function is called by:
  5072 ;;		_lcd_putc
  5073 ;;		_lcd_puts
  5074 ;; This function uses a non-reentrant model
  5075 ;;
  5076                           psect	text781
  5077                           	file	"C:\Users\may\OneDrive\WeiJi\Mplab_workspace\work_together1\Untitled.c"
  5078                           	line	183
  5079                           	global	__size_of_lcd_data
  5080  008C                     	__size_of_lcd_data	equ	__end_of_lcd_data-_lcd_data
  5081                           	
  5082  0EE8                     _lcd_data:	
  5083                           	opt	stack 4
  5084                           ; Regs used in _lcd_data: [wreg+status,2+status,0+pclath+cstack]
  5085                           ;lcd_data@data stored from wreg
  5086  0EE8  1283               	bcf	status, 5	;RP0=0, select bank0
  5087  0EE9  1303               	bcf	status, 6	;RP1=0, select bank0
  5088  0EEA  00A7               	movwf	(lcd_data@data)
  5089                           	line	184
  5090                           	
  5091  0EEB                     l4202:	
  5092                           ;Untitled.c: 184: PORTDbits.RD0 = 1;
  5093  0EEB  1408               	bsf	(8),0	;volatile
  5094                           	line	185
  5095                           ;Untitled.c: 185: PORTDbits.RD1 = 0;
  5096  0EEC  1088               	bcf	(8),1	;volatile
  5097                           	line	186
  5098                           ;Untitled.c: 186: PORTDbits.RD2 = 1;
  5099  0EED  1508               	bsf	(8),2	;volatile
  5100                           	line	187
  5101                           	
  5102  0EEE                     l4204:	
  5103                           ;Untitled.c: 187: PORTDbits.RD4 = (data & 0x10) ? 1 : 0;
  5104  0EEE  3000               	movlw	0
  5105  0EEF  1A27               	btfsc	(lcd_data@data),(4)&7
  5106  0EF0  3001               	movlw	1
  5107  0EF1  00A6               	movwf	(??_lcd_data+0)+0
  5108  0EF2  0EA6               	swapf	(??_lcd_data+0)+0,f
  5109  0EF3  0808               	movf	(8),w	;volatile
  5110  0EF4  0626               	xorwf	(??_lcd_data+0)+0,w
  5111  0EF5  39EF               	andlw	not (((1<<1)-1)<<4)
  5112  0EF6  0626               	xorwf	(??_lcd_data+0)+0,w
  5113  0EF7  0088               	movwf	(8)	;volatile
  5114                           	line	188
  5115                           ;Untitled.c: 188: PORTDbits.RD5 = (data & 0x20) ? 1 : 0;
  5116  0EF8  3000               	movlw	0
  5117  0EF9  1AA7               	btfsc	(lcd_data@data),(5)&7
  5118  0EFA  3001               	movlw	1
  5119  0EFB  00A6               	movwf	(??_lcd_data+0)+0
  5120  0EFC  0EA6               	swapf	(??_lcd_data+0)+0,f
  5121  0EFD  0DA6               	rlf	(??_lcd_data+0)+0,f
  5122  0EFE  0808               	movf	(8),w	;volatile
  5123  0EFF  0626               	xorwf	(??_lcd_data+0)+0,w
  5124  0F00  39DF               	andlw	not (((1<<1)-1)<<5)
  5125  0F01  0626               	xorwf	(??_lcd_data+0)+0,w
  5126  0F02  0088               	movwf	(8)	;volatile
  5127                           	line	189
  5128                           ;Untitled.c: 189: PORTDbits.RD6 = (data & 0x40) ? 1 : 0;
  5129  0F03  3000               	movlw	0
  5130  0F04  1B27               	btfsc	(lcd_data@data),(6)&7
  5131  0F05  3001               	movlw	1
  5132  0F06  00A6               	movwf	(??_lcd_data+0)+0
  5133  0F07  0EA6               	swapf	(??_lcd_data+0)+0,f
  5134  0F08  0DA6               	rlf	(??_lcd_data+0)+0,f
  5135  0F09  0DA6               	rlf	(??_lcd_data+0)+0,f
  5136  0F0A  0808               	movf	(8),w	;volatile
  5137  0F0B  0626               	xorwf	(??_lcd_data+0)+0,w
  5138  0F0C  39BF               	andlw	not (((1<<1)-1)<<6)
  5139  0F0D  0626               	xorwf	(??_lcd_data+0)+0,w
  5140  0F0E  0088               	movwf	(8)	;volatile
  5141                           	line	190
  5142                           ;Untitled.c: 190: PORTDbits.RD7 = (data & 0x80) ? 1 : 0;
  5143  0F0F  3000               	movlw	0
  5144  0F10  1BA7               	btfsc	(lcd_data@data),(7)&7
  5145  0F11  3001               	movlw	1
  5146  0F12  00A6               	movwf	(??_lcd_data+0)+0
  5147  0F13  0CA6               	rrf	(??_lcd_data+0)+0,f
  5148  0F14  0CA6               	rrf	(??_lcd_data+0)+0,f
  5149  0F15  0808               	movf	(8),w	;volatile
  5150  0F16  0626               	xorwf	(??_lcd_data+0)+0,w
  5151  0F17  397F               	andlw	not (((1<<1)-1)<<7)
  5152  0F18  0626               	xorwf	(??_lcd_data+0)+0,w
  5153  0F19  0088               	movwf	(8)	;volatile
  5154                           	line	191
  5155                           	
  5156  0F1A                     l4206:	
  5157                           ;Untitled.c: 191: delay_ms(1);
  5158  0F1A  3001               	movlw	low(01h)
  5159  0F1B  00A0               	movwf	(?_delay_ms)
  5160  0F1C  3000               	movlw	high(01h)
  5161  0F1D  00A1               	movwf	((?_delay_ms))+1
  5162  0F1E  120A  158A  232C   	fcall	_delay_ms
              120A  158A         
  5163                           	line	192
  5164                           	
  5165  0F23                     l4208:	
  5166                           ;Untitled.c: 192: PORTDbits.RD2 = 0;
  5167  0F23  1283               	bcf	status, 5	;RP0=0, select bank0
  5168  0F24  1303               	bcf	status, 6	;RP1=0, select bank0
  5169  0F25  1108               	bcf	(8),2	;volatile
  5170                           	line	193
  5171                           	
  5172  0F26                     l4210:	
  5173                           ;Untitled.c: 193: delay_ms(1);
  5174  0F26  3001               	movlw	low(01h)
  5175  0F27  00A0               	movwf	(?_delay_ms)
  5176  0F28  3000               	movlw	high(01h)
  5177  0F29  00A1               	movwf	((?_delay_ms))+1
  5178  0F2A  120A  158A  232C   	fcall	_delay_ms
              120A  158A         
  5179                           	line	195
  5180                           	
  5181  0F2F                     l4212:	
  5182                           ;Untitled.c: 195: PORTDbits.RD2 = 1;
  5183  0F2F  1283               	bcf	status, 5	;RP0=0, select bank0
  5184  0F30  1303               	bcf	status, 6	;RP1=0, select bank0
  5185  0F31  1508               	bsf	(8),2	;volatile
  5186                           	line	196
  5187                           ;Untitled.c: 196: PORTDbits.RD4 = (data & 0x01) ? 1 : 0;
  5188  0F32  3000               	movlw	0
  5189  0F33  1827               	btfsc	(lcd_data@data),(0)&7
  5190  0F34  3001               	movlw	1
  5191  0F35  00A6               	movwf	(??_lcd_data+0)+0
  5192  0F36  0EA6               	swapf	(??_lcd_data+0)+0,f
  5193  0F37  0808               	movf	(8),w	;volatile
  5194  0F38  0626               	xorwf	(??_lcd_data+0)+0,w
  5195  0F39  39EF               	andlw	not (((1<<1)-1)<<4)
  5196  0F3A  0626               	xorwf	(??_lcd_data+0)+0,w
  5197  0F3B  0088               	movwf	(8)	;volatile
  5198                           	line	197
  5199                           ;Untitled.c: 197: PORTDbits.RD5 = (data & 0x02) ? 1 : 0;
  5200  0F3C  3000               	movlw	0
  5201  0F3D  18A7               	btfsc	(lcd_data@data),(1)&7
  5202  0F3E  3001               	movlw	1
  5203  0F3F  00A6               	movwf	(??_lcd_data+0)+0
  5204  0F40  0EA6               	swapf	(??_lcd_data+0)+0,f
  5205  0F41  0DA6               	rlf	(??_lcd_data+0)+0,f
  5206  0F42  0808               	movf	(8),w	;volatile
  5207  0F43  0626               	xorwf	(??_lcd_data+0)+0,w
  5208  0F44  39DF               	andlw	not (((1<<1)-1)<<5)
  5209  0F45  0626               	xorwf	(??_lcd_data+0)+0,w
  5210  0F46  0088               	movwf	(8)	;volatile
  5211                           	line	198
  5212                           ;Untitled.c: 198: PORTDbits.RD6 = (data & 0x04) ? 1 : 0;
  5213  0F47  3000               	movlw	0
  5214  0F48  1927               	btfsc	(lcd_data@data),(2)&7
  5215  0F49  3001               	movlw	1
  5216  0F4A  00A6               	movwf	(??_lcd_data+0)+0
  5217  0F4B  0EA6               	swapf	(??_lcd_data+0)+0,f
  5218  0F4C  0DA6               	rlf	(??_lcd_data+0)+0,f
  5219  0F4D  0DA6               	rlf	(??_lcd_data+0)+0,f
  5220  0F4E  0808               	movf	(8),w	;volatile
  5221  0F4F  0626               	xorwf	(??_lcd_data+0)+0,w
  5222  0F50  39BF               	andlw	not (((1<<1)-1)<<6)
  5223  0F51  0626               	xorwf	(??_lcd_data+0)+0,w
  5224  0F52  0088               	movwf	(8)	;volatile
  5225                           	line	199
  5226                           ;Untitled.c: 199: PORTDbits.RD7 = (data & 0x08) ? 1 : 0;
  5227  0F53  3000               	movlw	0
  5228  0F54  19A7               	btfsc	(lcd_data@data),(3)&7
  5229  0F55  3001               	movlw	1
  5230  0F56  00A6               	movwf	(??_lcd_data+0)+0
  5231  0F57  0CA6               	rrf	(??_lcd_data+0)+0,f
  5232  0F58  0CA6               	rrf	(??_lcd_data+0)+0,f
  5233  0F59  0808               	movf	(8),w	;volatile
  5234  0F5A  0626               	xorwf	(??_lcd_data+0)+0,w
  5235  0F5B  397F               	andlw	not (((1<<1)-1)<<7)
  5236  0F5C  0626               	xorwf	(??_lcd_data+0)+0,w
  5237  0F5D  0088               	movwf	(8)	;volatile
  5238                           	line	200
  5239                           	
  5240  0F5E                     l4214:	
  5241                           ;Untitled.c: 200: delay_ms(1);
  5242  0F5E  3001               	movlw	low(01h)
  5243  0F5F  00A0               	movwf	(?_delay_ms)
  5244  0F60  3000               	movlw	high(01h)
  5245  0F61  00A1               	movwf	((?_delay_ms))+1
  5246  0F62  120A  158A  232C   	fcall	_delay_ms
              120A  158A         
  5247                           	line	201
  5248                           	
  5249  0F67                     l4216:	
  5250                           ;Untitled.c: 201: PORTDbits.RD2 = 0;
  5251  0F67  1283               	bcf	status, 5	;RP0=0, select bank0
  5252  0F68  1303               	bcf	status, 6	;RP1=0, select bank0
  5253  0F69  1108               	bcf	(8),2	;volatile
  5254                           	line	202
  5255                           	
  5256  0F6A                     l4218:	
  5257                           ;Untitled.c: 202: delay_ms(2);
  5258  0F6A  3002               	movlw	low(02h)
  5259  0F6B  00A0               	movwf	(?_delay_ms)
  5260  0F6C  3000               	movlw	high(02h)
  5261  0F6D  00A1               	movwf	((?_delay_ms))+1
  5262  0F6E  120A  158A  232C   	fcall	_delay_ms
              120A  158A         
  5263                           	line	203
  5264                           	
  5265  0F73                     l747:	
  5266  0F73  0008               	return
  5267                           	opt stack 0
  5268                           GLOBAL	__end_of_lcd_data
  5269  0F74                     	__end_of_lcd_data:
  5270 ;; =============== function _lcd_data ends ============
  5271                           
  5272                           	signat	_lcd_data,4216
  5273                           	global	___lldiv
  5274                           psect	text782,local,class=CODE,delta=2
  5275                           global __ptext782
  5276  0CFC                     __ptext782:
  5277                           
  5278 ;; *************** function ___lldiv *****************
  5279 ;; Defined at:
  5280 ;;		line 5 in file "C:\Program Files (x86)\HI-TECH Software\PICC\9.82\sources\lldiv.c"
  5281 ;; Parameters:    Size  Location     Type
  5282 ;;  divisor         4    0[BANK0 ] unsigned long 
  5283 ;;  dividend        4    4[BANK0 ] unsigned long 
  5284 ;; Auto vars:     Size  Location     Type
  5285 ;;  quotient        4    9[BANK0 ] unsigned long 
  5286 ;;  counter         1   13[BANK0 ] unsigned char 
  5287 ;; Return value:  Size  Location     Type
  5288 ;;                  4    0[BANK0 ] unsigned long 
  5289 ;; Registers used:
  5290 ;;		wreg, status,2, status,0
  5291 ;; Tracked objects:
  5292 ;;		On entry : 0/0
  5293 ;;		On exit  : 0/0
  5294 ;;		Unchanged: 0/0
  5295 ;; Data sizes:     COMMON   BANK0   BANK1   BANK3   BANK2
  5296 ;;      Params:         0       8       0       0       0
  5297 ;;      Locals:         0       5       0       0       0
  5298 ;;      Temps:          0       1       0       0       0
  5299 ;;      Totals:         0      14       0       0       0
  5300 ;;Total ram usage:       14 bytes
  5301 ;; Hardware stack levels used:    1
  5302 ;; Hardware stack levels required when called:    1
  5303 ;; This function calls:
  5304 ;;		Nothing
  5305 ;; This function is called by:
  5306 ;;		_lcd_putnumf
  5307 ;; This function uses a non-reentrant model
  5308 ;;
  5309                           psect	text782
  5310                           	file	"C:\Program Files (x86)\HI-TECH Software\PICC\9.82\sources\lldiv.c"
  5311                           	line	5
  5312                           	global	__size_of___lldiv
  5313  0070                     	__size_of___lldiv	equ	__end_of___lldiv-___lldiv
  5314                           	
  5315  0CFC                     ___lldiv:	
  5316                           	opt	stack 5
  5317                           ; Regs used in ___lldiv: [wreg+status,2+status,0]
  5318                           	line	9
  5319                           	
  5320  0CFC                     l4142:	
  5321  0CFC  3000               	movlw	0
  5322  0CFD  1283               	bcf	status, 5	;RP0=0, select bank0
  5323  0CFE  1303               	bcf	status, 6	;RP1=0, select bank0
  5324  0CFF  00AC               	movwf	(___lldiv@quotient+3)
  5325  0D00  3000               	movlw	0
  5326  0D01  00AB               	movwf	(___lldiv@quotient+2)
  5327  0D02  3000               	movlw	0
  5328  0D03  00AA               	movwf	(___lldiv@quotient+1)
  5329  0D04  3000               	movlw	0
  5330  0D05  00A9               	movwf	(___lldiv@quotient)
  5331                           
  5332                           	line	10
  5333  0D06  0823               	movf	(___lldiv@divisor+3),w
  5334  0D07  0422               	iorwf	(___lldiv@divisor+2),w
  5335  0D08  0421               	iorwf	(___lldiv@divisor+1),w
  5336  0D09  0420               	iorwf	(___lldiv@divisor),w
  5337  0D0A  1903               	skipnz
  5338  0D0B  2D0D               	goto	u3961
  5339  0D0C  2D0E               	goto	u3960
  5340  0D0D                     u3961:
  5341  0D0D  2D62               	goto	l4162
  5342  0D0E                     u3960:
  5343                           	line	11
  5344                           	
  5345  0D0E                     l4144:	
  5346  0D0E  01AD               	clrf	(___lldiv@counter)
  5347  0D0F  1403               	bsf	status,0
  5348  0D10  0DAD               	rlf	(___lldiv@counter),f
  5349                           	line	12
  5350  0D11  2D20               	goto	l4148
  5351                           	
  5352  0D12                     l1648:	
  5353                           	line	13
  5354                           	
  5355  0D12                     l4146:	
  5356  0D12  3001               	movlw	01h
  5357  0D13  00A8               	movwf	(??___lldiv+0)+0
  5358  0D14                     u3975:
  5359  0D14  1003               	clrc
  5360  0D15  0DA0               	rlf	(___lldiv@divisor),f
  5361  0D16  0DA1               	rlf	(___lldiv@divisor+1),f
  5362  0D17  0DA2               	rlf	(___lldiv@divisor+2),f
  5363  0D18  0DA3               	rlf	(___lldiv@divisor+3),f
  5364  0D19  0BA8               	decfsz	(??___lldiv+0)+0
  5365  0D1A  2D14               	goto	u3975
  5366                           	line	14
  5367  0D1B  3001               	movlw	(01h)
  5368  0D1C  00A8               	movwf	(??___lldiv+0)+0
  5369  0D1D  0828               	movf	(??___lldiv+0)+0,w
  5370  0D1E  07AD               	addwf	(___lldiv@counter),f
  5371  0D1F  2D20               	goto	l4148
  5372                           	line	15
  5373                           	
  5374  0D20                     l1647:	
  5375                           	line	12
  5376                           	
  5377  0D20                     l4148:	
  5378  0D20  1FA3               	btfss	(___lldiv@divisor+3),(31)&7
  5379  0D21  2D23               	goto	u3981
  5380  0D22  2D24               	goto	u3980
  5381  0D23                     u3981:
  5382  0D23  2D12               	goto	l4146
  5383  0D24                     u3980:
  5384  0D24  2D26               	goto	l4150
  5385                           	
  5386  0D25                     l1649:	
  5387  0D25  2D26               	goto	l4150
  5388                           	line	16
  5389                           	
  5390  0D26                     l1650:	
  5391                           	line	17
  5392                           	
  5393  0D26                     l4150:	
  5394  0D26  3001               	movlw	01h
  5395  0D27  00A8               	movwf	(??___lldiv+0)+0
  5396  0D28                     u3995:
  5397  0D28  1003               	clrc
  5398  0D29  0DA9               	rlf	(___lldiv@quotient),f
  5399  0D2A  0DAA               	rlf	(___lldiv@quotient+1),f
  5400  0D2B  0DAB               	rlf	(___lldiv@quotient+2),f
  5401  0D2C  0DAC               	rlf	(___lldiv@quotient+3),f
  5402  0D2D  0BA8               	decfsz	(??___lldiv+0)+0
  5403  0D2E  2D28               	goto	u3995
  5404                           	line	18
  5405                           	
  5406  0D2F                     l4152:	
  5407  0D2F  0823               	movf	(___lldiv@divisor+3),w
  5408  0D30  0227               	subwf	(___lldiv@dividend+3),w
  5409  0D31  1D03               	skipz
  5410  0D32  2D3D               	goto	u4005
  5411  0D33  0822               	movf	(___lldiv@divisor+2),w
  5412  0D34  0226               	subwf	(___lldiv@dividend+2),w
  5413  0D35  1D03               	skipz
  5414  0D36  2D3D               	goto	u4005
  5415  0D37  0821               	movf	(___lldiv@divisor+1),w
  5416  0D38  0225               	subwf	(___lldiv@dividend+1),w
  5417  0D39  1D03               	skipz
  5418  0D3A  2D3D               	goto	u4005
  5419  0D3B  0820               	movf	(___lldiv@divisor),w
  5420  0D3C  0224               	subwf	(___lldiv@dividend),w
  5421  0D3D                     u4005:
  5422  0D3D  1C03               	skipc
  5423  0D3E  2D40               	goto	u4001
  5424  0D3F  2D41               	goto	u4000
  5425  0D40                     u4001:
  5426  0D40  2D51               	goto	l4158
  5427  0D41                     u4000:
  5428                           	line	19
  5429                           	
  5430  0D41                     l4154:	
  5431  0D41  0820               	movf	(___lldiv@divisor),w
  5432  0D42  02A4               	subwf	(___lldiv@dividend),f
  5433  0D43  0821               	movf	(___lldiv@divisor+1),w
  5434  0D44  1C03               	skipc
  5435  0D45  0F21               	incfsz	(___lldiv@divisor+1),w
  5436  0D46  02A5               	subwf	(___lldiv@dividend+1),f
  5437  0D47  0822               	movf	(___lldiv@divisor+2),w
  5438  0D48  1C03               	skipc
  5439  0D49  0F22               	incfsz	(___lldiv@divisor+2),w
  5440  0D4A  02A6               	subwf	(___lldiv@dividend+2),f
  5441  0D4B  0823               	movf	(___lldiv@divisor+3),w
  5442  0D4C  1C03               	skipc
  5443  0D4D  0F23               	incfsz	(___lldiv@divisor+3),w
  5444  0D4E  02A7               	subwf	(___lldiv@dividend+3),f
  5445                           	line	20
  5446                           	
  5447  0D4F                     l4156:	
  5448  0D4F  1429               	bsf	(___lldiv@quotient)+(0/8),(0)&7
  5449  0D50  2D51               	goto	l4158
  5450                           	line	21
  5451                           	
  5452  0D51                     l1651:	
  5453                           	line	22
  5454                           	
  5455  0D51                     l4158:	
  5456  0D51  3001               	movlw	01h
  5457  0D52                     u4015:
  5458  0D52  1003               	clrc
  5459  0D53  0CA3               	rrf	(___lldiv@divisor+3),f
  5460  0D54  0CA2               	rrf	(___lldiv@divisor+2),f
  5461  0D55  0CA1               	rrf	(___lldiv@divisor+1),f
  5462  0D56  0CA0               	rrf	(___lldiv@divisor),f
  5463  0D57  3EFF               	addlw	-1
  5464  0D58  1D03               	skipz
  5465  0D59  2D52               	goto	u4015
  5466                           
  5467                           	line	23
  5468                           	
  5469  0D5A                     l4160:	
  5470  0D5A  3001               	movlw	low(01h)
  5471  0D5B  02AD               	subwf	(___lldiv@counter),f
  5472  0D5C  1D03               	btfss	status,2
  5473  0D5D  2D5F               	goto	u4021
  5474  0D5E  2D60               	goto	u4020
  5475  0D5F                     u4021:
  5476  0D5F  2D26               	goto	l4150
  5477  0D60                     u4020:
  5478  0D60  2D62               	goto	l4162
  5479                           	
  5480  0D61                     l1652:	
  5481  0D61  2D62               	goto	l4162
  5482                           	line	24
  5483                           	
  5484  0D62                     l1646:	
  5485                           	line	25
  5486                           	
  5487  0D62                     l4162:	
  5488  0D62  082C               	movf	(___lldiv@quotient+3),w
  5489  0D63  00A3               	movwf	(?___lldiv+3)
  5490  0D64  082B               	movf	(___lldiv@quotient+2),w
  5491  0D65  00A2               	movwf	(?___lldiv+2)
  5492  0D66  082A               	movf	(___lldiv@quotient+1),w
  5493  0D67  00A1               	movwf	(?___lldiv+1)
  5494  0D68  0829               	movf	(___lldiv@quotient),w
  5495  0D69  00A0               	movwf	(?___lldiv)
  5496                           
  5497  0D6A  2D6B               	goto	l1653
  5498                           	
  5499  0D6B                     l4164:	
  5500                           	line	26
  5501                           	
  5502  0D6B                     l1653:	
  5503  0D6B  0008               	return
  5504                           	opt stack 0
  5505                           GLOBAL	__end_of___lldiv
  5506  0D6C                     	__end_of___lldiv:
  5507 ;; =============== function ___lldiv ends ============
  5508                           
  5509                           	signat	___lldiv,8316
  5510                           	global	___ftneg
  5511                           psect	text783,local,class=CODE,delta=2
  5512                           global __ptext783
  5513  0AAB                     __ptext783:
  5514                           
  5515 ;; *************** function ___ftneg *****************
  5516 ;; Defined at:
  5517 ;;		line 16 in file "C:\Program Files (x86)\HI-TECH Software\PICC\9.82\sources\ftneg.c"
  5518 ;; Parameters:    Size  Location     Type
  5519 ;;  f1              3   22[BANK0 ] float 
  5520 ;; Auto vars:     Size  Location     Type
  5521 ;;		None
  5522 ;; Return value:  Size  Location     Type
  5523 ;;                  3   22[BANK0 ] float 
  5524 ;; Registers used:
  5525 ;;		wreg
  5526 ;; Tracked objects:
  5527 ;;		On entry : 0/0
  5528 ;;		On exit  : 0/0
  5529 ;;		Unchanged: 0/0
  5530 ;; Data sizes:     COMMON   BANK0   BANK1   BANK3   BANK2
  5531 ;;      Params:         0       3       0       0       0
  5532 ;;      Locals:         0       0       0       0       0
  5533 ;;      Temps:          0       0       0       0       0
  5534 ;;      Totals:         0       3       0       0       0
  5535 ;;Total ram usage:        3 bytes
  5536 ;; Hardware stack levels used:    1
  5537 ;; Hardware stack levels required when called:    1
  5538 ;; This function calls:
  5539 ;;		Nothing
  5540 ;; This function is called by:
  5541 ;;		_lcd_putnumf
  5542 ;; This function uses a non-reentrant model
  5543 ;;
  5544                           psect	text783
  5545                           	file	"C:\Program Files (x86)\HI-TECH Software\PICC\9.82\sources\ftneg.c"
  5546                           	line	16
  5547                           	global	__size_of___ftneg
  5548  000E                     	__size_of___ftneg	equ	__end_of___ftneg-___ftneg
  5549                           	
  5550  0AAB                     ___ftneg:	
  5551                           	opt	stack 5
  5552                           ; Regs used in ___ftneg: [wreg]
  5553                           	line	17
  5554                           	
  5555  0AAB                     l4134:	
  5556  0AAB  1283               	bcf	status, 5	;RP0=0, select bank0
  5557  0AAC  1303               	bcf	status, 6	;RP1=0, select bank0
  5558  0AAD  0838               	movf	(___ftneg@f1+2),w
  5559  0AAE  0437               	iorwf	(___ftneg@f1+1),w
  5560  0AAF  0436               	iorwf	(___ftneg@f1),w
  5561  0AB0  1903               	skipnz
  5562  0AB1  2AB3               	goto	u3951
  5563  0AB2  2AB4               	goto	u3950
  5564  0AB3                     u3951:
  5565  0AB3  2AB7               	goto	l4138
  5566  0AB4                     u3950:
  5567                           	line	18
  5568                           	
  5569  0AB4                     l4136:	
  5570  0AB4  3080               	movlw	080h
  5571  0AB5  06B8               	xorwf	(___ftneg@f1+2),f
  5572  0AB6  2AB7               	goto	l4138
  5573                           	
  5574  0AB7                     l1637:	
  5575                           	line	19
  5576                           	
  5577  0AB7                     l4138:	
  5578  0AB7  2AB8               	goto	l1638
  5579                           	
  5580  0AB8                     l4140:	
  5581                           	line	20
  5582                           	
  5583  0AB8                     l1638:	
  5584  0AB8  0008               	return
  5585                           	opt stack 0
  5586                           GLOBAL	__end_of___ftneg
  5587  0AB9                     	__end_of___ftneg:
  5588 ;; =============== function ___ftneg ends ============
  5589                           
  5590                           	signat	___ftneg,4219
  5591                           	global	___llmod
  5592                           psect	text784,local,class=CODE,delta=2
  5593                           global __ptext784
  5594  0C9E                     __ptext784:
  5595                           
  5596 ;; *************** function ___llmod *****************
  5597 ;; Defined at:
  5598 ;;		line 5 in file "C:\Program Files (x86)\HI-TECH Software\PICC\9.82\sources\llmod.c"
  5599 ;; Parameters:    Size  Location     Type
  5600 ;;  divisor         4    0[BANK0 ] unsigned long 
  5601 ;;  dividend        4    4[BANK0 ] unsigned long 
  5602 ;; Auto vars:     Size  Location     Type
  5603 ;;  counter         1    9[BANK0 ] unsigned char 
  5604 ;; Return value:  Size  Location     Type
  5605 ;;                  4    0[BANK0 ] unsigned long 
  5606 ;; Registers used:
  5607 ;;		wreg, status,2, status,0
  5608 ;; Tracked objects:
  5609 ;;		On entry : 0/0
  5610 ;;		On exit  : 0/0
  5611 ;;		Unchanged: 0/0
  5612 ;; Data sizes:     COMMON   BANK0   BANK1   BANK3   BANK2
  5613 ;;      Params:         0       8       0       0       0
  5614 ;;      Locals:         0       1       0       0       0
  5615 ;;      Temps:          0       1       0       0       0
  5616 ;;      Totals:         0      10       0       0       0
  5617 ;;Total ram usage:       10 bytes
  5618 ;; Hardware stack levels used:    1
  5619 ;; Hardware stack levels required when called:    1
  5620 ;; This function calls:
  5621 ;;		Nothing
  5622 ;; This function is called by:
  5623 ;;		_lcd_putnumf
  5624 ;; This function uses a non-reentrant model
  5625 ;;
  5626                           psect	text784
  5627                           	file	"C:\Program Files (x86)\HI-TECH Software\PICC\9.82\sources\llmod.c"
  5628                           	line	5
  5629                           	global	__size_of___llmod
  5630  005E                     	__size_of___llmod	equ	__end_of___llmod-___llmod
  5631                           	
  5632  0C9E                     ___llmod:	
  5633                           	opt	stack 5
  5634                           ; Regs used in ___llmod: [wreg+status,2+status,0]
  5635                           	line	8
  5636                           	
  5637  0C9E                     l4114:	
  5638  0C9E  1283               	bcf	status, 5	;RP0=0, select bank0
  5639  0C9F  1303               	bcf	status, 6	;RP1=0, select bank0
  5640  0CA0  0823               	movf	(___llmod@divisor+3),w
  5641  0CA1  0422               	iorwf	(___llmod@divisor+2),w
  5642  0CA2  0421               	iorwf	(___llmod@divisor+1),w
  5643  0CA3  0420               	iorwf	(___llmod@divisor),w
  5644  0CA4  1903               	skipnz
  5645  0CA5  2CA7               	goto	u3891
  5646  0CA6  2CA8               	goto	u3890
  5647  0CA7                     u3891:
  5648  0CA7  2CF2               	goto	l4130
  5649  0CA8                     u3890:
  5650                           	line	9
  5651                           	
  5652  0CA8                     l4116:	
  5653  0CA8  01A9               	clrf	(___llmod@counter)
  5654  0CA9  1403               	bsf	status,0
  5655  0CAA  0DA9               	rlf	(___llmod@counter),f
  5656                           	line	10
  5657  0CAB  2CBA               	goto	l4120
  5658                           	
  5659  0CAC                     l1629:	
  5660                           	line	11
  5661                           	
  5662  0CAC                     l4118:	
  5663  0CAC  3001               	movlw	01h
  5664  0CAD  00A8               	movwf	(??___llmod+0)+0
  5665  0CAE                     u3905:
  5666  0CAE  1003               	clrc
  5667  0CAF  0DA0               	rlf	(___llmod@divisor),f
  5668  0CB0  0DA1               	rlf	(___llmod@divisor+1),f
  5669  0CB1  0DA2               	rlf	(___llmod@divisor+2),f
  5670  0CB2  0DA3               	rlf	(___llmod@divisor+3),f
  5671  0CB3  0BA8               	decfsz	(??___llmod+0)+0
  5672  0CB4  2CAE               	goto	u3905
  5673                           	line	12
  5674  0CB5  3001               	movlw	(01h)
  5675  0CB6  00A8               	movwf	(??___llmod+0)+0
  5676  0CB7  0828               	movf	(??___llmod+0)+0,w
  5677  0CB8  07A9               	addwf	(___llmod@counter),f
  5678  0CB9  2CBA               	goto	l4120
  5679                           	line	13
  5680                           	
  5681  0CBA                     l1628:	
  5682                           	line	10
  5683                           	
  5684  0CBA                     l4120:	
  5685  0CBA  1FA3               	btfss	(___llmod@divisor+3),(31)&7
  5686  0CBB  2CBD               	goto	u3911
  5687  0CBC  2CBE               	goto	u3910
  5688  0CBD                     u3911:
  5689  0CBD  2CAC               	goto	l4118
  5690  0CBE                     u3910:
  5691  0CBE  2CC0               	goto	l4122
  5692                           	
  5693  0CBF                     l1630:	
  5694  0CBF  2CC0               	goto	l4122
  5695                           	line	14
  5696                           	
  5697  0CC0                     l1631:	
  5698                           	line	15
  5699                           	
  5700  0CC0                     l4122:	
  5701  0CC0  0823               	movf	(___llmod@divisor+3),w
  5702  0CC1  0227               	subwf	(___llmod@dividend+3),w
  5703  0CC2  1D03               	skipz
  5704  0CC3  2CCE               	goto	u3925
  5705  0CC4  0822               	movf	(___llmod@divisor+2),w
  5706  0CC5  0226               	subwf	(___llmod@dividend+2),w
  5707  0CC6  1D03               	skipz
  5708  0CC7  2CCE               	goto	u3925
  5709  0CC8  0821               	movf	(___llmod@divisor+1),w
  5710  0CC9  0225               	subwf	(___llmod@dividend+1),w
  5711  0CCA  1D03               	skipz
  5712  0CCB  2CCE               	goto	u3925
  5713  0CCC  0820               	movf	(___llmod@divisor),w
  5714  0CCD  0224               	subwf	(___llmod@dividend),w
  5715  0CCE                     u3925:
  5716  0CCE  1C03               	skipc
  5717  0CCF  2CD1               	goto	u3921
  5718  0CD0  2CD2               	goto	u3920
  5719  0CD1                     u3921:
  5720  0CD1  2CE1               	goto	l4126
  5721  0CD2                     u3920:
  5722                           	line	16
  5723                           	
  5724  0CD2                     l4124:	
  5725  0CD2  0820               	movf	(___llmod@divisor),w
  5726  0CD3  02A4               	subwf	(___llmod@dividend),f
  5727  0CD4  0821               	movf	(___llmod@divisor+1),w
  5728  0CD5  1C03               	skipc
  5729  0CD6  0F21               	incfsz	(___llmod@divisor+1),w
  5730  0CD7  02A5               	subwf	(___llmod@dividend+1),f
  5731  0CD8  0822               	movf	(___llmod@divisor+2),w
  5732  0CD9  1C03               	skipc
  5733  0CDA  0F22               	incfsz	(___llmod@divisor+2),w
  5734  0CDB  02A6               	subwf	(___llmod@dividend+2),f
  5735  0CDC  0823               	movf	(___llmod@divisor+3),w
  5736  0CDD  1C03               	skipc
  5737  0CDE  0F23               	incfsz	(___llmod@divisor+3),w
  5738  0CDF  02A7               	subwf	(___llmod@dividend+3),f
  5739  0CE0  2CE1               	goto	l4126
  5740                           	
  5741  0CE1                     l1632:	
  5742                           	line	17
  5743                           	
  5744  0CE1                     l4126:	
  5745  0CE1  3001               	movlw	01h
  5746  0CE2                     u3935:
  5747  0CE2  1003               	clrc
  5748  0CE3  0CA3               	rrf	(___llmod@divisor+3),f
  5749  0CE4  0CA2               	rrf	(___llmod@divisor+2),f
  5750  0CE5  0CA1               	rrf	(___llmod@divisor+1),f
  5751  0CE6  0CA0               	rrf	(___llmod@divisor),f
  5752  0CE7  3EFF               	addlw	-1
  5753  0CE8  1D03               	skipz
  5754  0CE9  2CE2               	goto	u3935
  5755                           
  5756                           	line	18
  5757                           	
  5758  0CEA                     l4128:	
  5759  0CEA  3001               	movlw	low(01h)
  5760  0CEB  02A9               	subwf	(___llmod@counter),f
  5761  0CEC  1D03               	btfss	status,2
  5762  0CED  2CEF               	goto	u3941
  5763  0CEE  2CF0               	goto	u3940
  5764  0CEF                     u3941:
  5765  0CEF  2CC0               	goto	l4122
  5766  0CF0                     u3940:
  5767  0CF0  2CF2               	goto	l4130
  5768                           	
  5769  0CF1                     l1633:	
  5770  0CF1  2CF2               	goto	l4130
  5771                           	line	19
  5772                           	
  5773  0CF2                     l1627:	
  5774                           	line	20
  5775                           	
  5776  0CF2                     l4130:	
  5777  0CF2  0827               	movf	(___llmod@dividend+3),w
  5778  0CF3  00A3               	movwf	(?___llmod+3)
  5779  0CF4  0826               	movf	(___llmod@dividend+2),w
  5780  0CF5  00A2               	movwf	(?___llmod+2)
  5781  0CF6  0825               	movf	(___llmod@dividend+1),w
  5782  0CF7  00A1               	movwf	(?___llmod+1)
  5783  0CF8  0824               	movf	(___llmod@dividend),w
  5784  0CF9  00A0               	movwf	(?___llmod)
  5785                           
  5786  0CFA  2CFB               	goto	l1634
  5787                           	
  5788  0CFB                     l4132:	
  5789                           	line	21
  5790                           	
  5791  0CFB                     l1634:	
  5792  0CFB  0008               	return
  5793                           	opt stack 0
  5794                           GLOBAL	__end_of___llmod
  5795  0CFC                     	__end_of___llmod:
  5796 ;; =============== function ___llmod ends ============
  5797                           
  5798                           	signat	___llmod,8316
  5799                           	global	___fttol
  5800                           psect	text785,local,class=CODE,delta=2
  5801                           global __ptext785
  5802  0739                     __ptext785:
  5803                           
  5804 ;; *************** function ___fttol *****************
  5805 ;; Defined at:
  5806 ;;		line 45 in file "C:\Program Files (x86)\HI-TECH Software\PICC\9.82\sources\fttol.c"
  5807 ;; Parameters:    Size  Location     Type
  5808 ;;  f1              3    8[BANK0 ] float 
  5809 ;; Auto vars:     Size  Location     Type
  5810 ;;  lval            4   17[BANK0 ] unsigned long 
  5811 ;;  exp1            1   21[BANK0 ] unsigned char 
  5812 ;;  sign1           1   16[BANK0 ] unsigned char 
  5813 ;; Return value:  Size  Location     Type
  5814 ;;                  4    8[BANK0 ] long 
  5815 ;; Registers used:
  5816 ;;		wreg, status,2, status,0
  5817 ;; Tracked objects:
  5818 ;;		On entry : 0/0
  5819 ;;		On exit  : 0/0
  5820 ;;		Unchanged: 0/0
  5821 ;; Data sizes:     COMMON   BANK0   BANK1   BANK3   BANK2
  5822 ;;      Params:         0       4       0       0       0
  5823 ;;      Locals:         0       6       0       0       0
  5824 ;;      Temps:          0       4       0       0       0
  5825 ;;      Totals:         0      14       0       0       0
  5826 ;;Total ram usage:       14 bytes
  5827 ;; Hardware stack levels used:    1
  5828 ;; Hardware stack levels required when called:    1
  5829 ;; This function calls:
  5830 ;;		Nothing
  5831 ;; This function is called by:
  5832 ;;		_set_pwm_frequency
  5833 ;;		_lcd_putnumf
  5834 ;; This function uses a non-reentrant model
  5835 ;;
  5836                           psect	text785
  5837                           	file	"C:\Program Files (x86)\HI-TECH Software\PICC\9.82\sources\fttol.c"
  5838                           	line	45
  5839                           	global	__size_of___fttol
  5840  00A6                     	__size_of___fttol	equ	__end_of___fttol-___fttol
  5841                           	
  5842  0739                     ___fttol:	
  5843                           	opt	stack 5
  5844                           ; Regs used in ___fttol: [wreg+status,2+status,0]
  5845                           	line	49
  5846                           	
  5847  0739                     l3426:	
  5848  0739  1283               	bcf	status, 5	;RP0=0, select bank0
  5849  073A  1303               	bcf	status, 6	;RP1=0, select bank0
  5850  073B  0828               	movf	(___fttol@f1),w
  5851  073C  00AC               	movwf	((??___fttol+0)+0)
  5852  073D  0829               	movf	(___fttol@f1+1),w
  5853  073E  00AD               	movwf	((??___fttol+0)+0+1)
  5854  073F  082A               	movf	(___fttol@f1+2),w
  5855  0740  00AE               	movwf	((??___fttol+0)+0+2)
  5856  0741  1003               	clrc
  5857  0742  0D2D               	rlf	(??___fttol+0)+1,w
  5858  0743  0D2E               	rlf	(??___fttol+0)+2,w
  5859  0744  00AF               	movwf	(??___fttol+3)+0
  5860  0745  082F               	movf	(??___fttol+3)+0,w
  5861  0746  00B5               	movwf	(___fttol@exp1)
  5862  0747  08B5               	movf	((___fttol@exp1)),f
  5863  0748  1D03               	skipz
  5864  0749  2F4B               	goto	u2701
  5865  074A  2F4C               	goto	u2700
  5866  074B                     u2701:
  5867  074B  2F56               	goto	l3432
  5868  074C                     u2700:
  5869                           	line	50
  5870                           	
  5871  074C                     l3428:	
  5872  074C  3000               	movlw	0
  5873  074D  00AB               	movwf	(?___fttol+3)
  5874  074E  3000               	movlw	0
  5875  074F  00AA               	movwf	(?___fttol+2)
  5876  0750  3000               	movlw	0
  5877  0751  00A9               	movwf	(?___fttol+1)
  5878  0752  3000               	movlw	0
  5879  0753  00A8               	movwf	(?___fttol)
  5880                           
  5881  0754  2FDE               	goto	l1584
  5882                           	
  5883  0755                     l3430:	
  5884  0755  2FDE               	goto	l1584
  5885                           	
  5886  0756                     l1583:	
  5887                           	line	51
  5888                           	
  5889  0756                     l3432:	
  5890  0756  0828               	movf	(___fttol@f1),w
  5891  0757  00AC               	movwf	((??___fttol+0)+0)
  5892  0758  0829               	movf	(___fttol@f1+1),w
  5893  0759  00AD               	movwf	((??___fttol+0)+0+1)
  5894  075A  082A               	movf	(___fttol@f1+2),w
  5895  075B  00AE               	movwf	((??___fttol+0)+0+2)
  5896  075C  3017               	movlw	017h
  5897  075D                     u2715:
  5898  075D  1003               	clrc
  5899  075E  0CAE               	rrf	(??___fttol+0)+2,f
  5900  075F  0CAD               	rrf	(??___fttol+0)+1,f
  5901  0760  0CAC               	rrf	(??___fttol+0)+0,f
  5902  0761                     u2710:
  5903  0761  3EFF               	addlw	-1
  5904  0762  1D03               	skipz
  5905  0763  2F5D               	goto	u2715
  5906  0764  082C               	movf	0+(??___fttol+0)+0,w
  5907  0765  00AF               	movwf	(??___fttol+3)+0
  5908  0766  082F               	movf	(??___fttol+3)+0,w
  5909  0767  00B0               	movwf	(___fttol@sign1)
  5910                           	line	52
  5911                           	
  5912  0768                     l3434:	
  5913  0768  17A9               	bsf	(___fttol@f1)+(15/8),(15)&7
  5914                           	line	53
  5915                           	
  5916  0769                     l3436:	
  5917  0769  30FF               	movlw	0FFh
  5918  076A  05A8               	andwf	(___fttol@f1),f
  5919  076B  30FF               	movlw	0FFh
  5920  076C  05A9               	andwf	(___fttol@f1+1),f
  5921  076D  3000               	movlw	0
  5922  076E  05AA               	andwf	(___fttol@f1+2),f
  5923                           	line	54
  5924                           	
  5925  076F                     l3438:	
  5926  076F  0828               	movf	(___fttol@f1),w
  5927  0770  00B1               	movwf	(___fttol@lval)
  5928  0771  0829               	movf	(___fttol@f1+1),w
  5929  0772  00B2               	movwf	((___fttol@lval))+1
  5930  0773  082A               	movf	(___fttol@f1+2),w
  5931  0774  00B3               	movwf	((___fttol@lval))+2
  5932  0775  01B4               	clrf	((___fttol@lval))+3
  5933                           	line	55
  5934                           	
  5935  0776                     l3440:	
  5936  0776  308E               	movlw	low(08Eh)
  5937  0777  02B5               	subwf	(___fttol@exp1),f
  5938                           	line	56
  5939                           	
  5940  0778                     l3442:	
  5941  0778  1FB5               	btfss	(___fttol@exp1),7
  5942  0779  2F7B               	goto	u2721
  5943  077A  2F7C               	goto	u2720
  5944  077B                     u2721:
  5945  077B  2FA1               	goto	l3452
  5946  077C                     u2720:
  5947                           	line	57
  5948                           	
  5949  077C                     l3444:	
  5950  077C  0835               	movf	(___fttol@exp1),w
  5951  077D  3A80               	xorlw	80h
  5952  077E  3E8F               	addlw	-((-15)^80h)
  5953  077F  1803               	skipnc
  5954  0780  2F82               	goto	u2731
  5955  0781  2F83               	goto	u2730
  5956  0782                     u2731:
  5957  0782  2F8E               	goto	l3450
  5958  0783                     u2730:
  5959                           	line	58
  5960                           	
  5961  0783                     l3446:	
  5962  0783  3000               	movlw	0
  5963  0784  00AB               	movwf	(?___fttol+3)
  5964  0785  3000               	movlw	0
  5965  0786  00AA               	movwf	(?___fttol+2)
  5966  0787  3000               	movlw	0
  5967  0788  00A9               	movwf	(?___fttol+1)
  5968  0789  3000               	movlw	0
  5969  078A  00A8               	movwf	(?___fttol)
  5970                           
  5971  078B  2FDE               	goto	l1584
  5972                           	
  5973  078C                     l3448:	
  5974  078C  2FDE               	goto	l1584
  5975                           	
  5976  078D                     l1586:	
  5977  078D  2F8E               	goto	l3450
  5978                           	line	59
  5979                           	
  5980  078E                     l1587:	
  5981                           	line	60
  5982                           	
  5983  078E                     l3450:	
  5984  078E  3001               	movlw	01h
  5985  078F                     u2745:
  5986  078F  1003               	clrc
  5987  0790  0CB4               	rrf	(___fttol@lval+3),f
  5988  0791  0CB3               	rrf	(___fttol@lval+2),f
  5989  0792  0CB2               	rrf	(___fttol@lval+1),f
  5990  0793  0CB1               	rrf	(___fttol@lval),f
  5991  0794  3EFF               	addlw	-1
  5992  0795  1D03               	skipz
  5993  0796  2F8F               	goto	u2745
  5994                           
  5995                           	line	61
  5996  0797  3001               	movlw	(01h)
  5997  0798  00AC               	movwf	(??___fttol+0)+0
  5998  0799  082C               	movf	(??___fttol+0)+0,w
  5999  079A  07B5               	addwf	(___fttol@exp1),f
  6000  079B  1D03               	btfss	status,2
  6001  079C  2F9E               	goto	u2751
  6002  079D  2F9F               	goto	u2750
  6003  079E                     u2751:
  6004  079E  2F8E               	goto	l3450
  6005  079F                     u2750:
  6006  079F  2FC5               	goto	l3462
  6007                           	
  6008  07A0                     l1588:	
  6009                           	line	62
  6010  07A0  2FC5               	goto	l3462
  6011                           	
  6012  07A1                     l1585:	
  6013                           	line	63
  6014                           	
  6015  07A1                     l3452:	
  6016  07A1  3018               	movlw	(018h)
  6017  07A2  0235               	subwf	(___fttol@exp1),w
  6018  07A3  1C03               	skipc
  6019  07A4  2FA6               	goto	u2761
  6020  07A5  2FA7               	goto	u2760
  6021  07A6                     u2761:
  6022  07A6  2FBE               	goto	l3460
  6023  07A7                     u2760:
  6024                           	line	64
  6025                           	
  6026  07A7                     l3454:	
  6027  07A7  3000               	movlw	0
  6028  07A8  00AB               	movwf	(?___fttol+3)
  6029  07A9  3000               	movlw	0
  6030  07AA  00AA               	movwf	(?___fttol+2)
  6031  07AB  3000               	movlw	0
  6032  07AC  00A9               	movwf	(?___fttol+1)
  6033  07AD  3000               	movlw	0
  6034  07AE  00A8               	movwf	(?___fttol)
  6035                           
  6036  07AF  2FDE               	goto	l1584
  6037                           	
  6038  07B0                     l3456:	
  6039  07B0  2FDE               	goto	l1584
  6040                           	
  6041  07B1                     l1590:	
  6042                           	line	65
  6043  07B1  2FBE               	goto	l3460
  6044                           	
  6045  07B2                     l1592:	
  6046                           	line	66
  6047                           	
  6048  07B2                     l3458:	
  6049  07B2  3001               	movlw	01h
  6050  07B3  00AC               	movwf	(??___fttol+0)+0
  6051  07B4                     u2775:
  6052  07B4  1003               	clrc
  6053  07B5  0DB1               	rlf	(___fttol@lval),f
  6054  07B6  0DB2               	rlf	(___fttol@lval+1),f
  6055  07B7  0DB3               	rlf	(___fttol@lval+2),f
  6056  07B8  0DB4               	rlf	(___fttol@lval+3),f
  6057  07B9  0BAC               	decfsz	(??___fttol+0)+0
  6058  07BA  2FB4               	goto	u2775
  6059                           	line	67
  6060  07BB  3001               	movlw	low(01h)
  6061  07BC  02B5               	subwf	(___fttol@exp1),f
  6062  07BD  2FBE               	goto	l3460
  6063                           	line	68
  6064                           	
  6065  07BE                     l1591:	
  6066                           	line	65
  6067                           	
  6068  07BE                     l3460:	
  6069  07BE  08B5               	movf	(___fttol@exp1),f
  6070  07BF  1D03               	skipz
  6071  07C0  2FC2               	goto	u2781
  6072  07C1  2FC3               	goto	u2780
  6073  07C2                     u2781:
  6074  07C2  2FB2               	goto	l3458
  6075  07C3                     u2780:
  6076  07C3  2FC5               	goto	l3462
  6077                           	
  6078  07C4                     l1593:	
  6079  07C4  2FC5               	goto	l3462
  6080                           	line	69
  6081                           	
  6082  07C5                     l1589:	
  6083                           	line	70
  6084                           	
  6085  07C5                     l3462:	
  6086  07C5  0830               	movf	(___fttol@sign1),w
  6087  07C6  1D03               	skipz
  6088  07C7  2FC9               	goto	u2790
  6089  07C8  2FD5               	goto	l3466
  6090  07C9                     u2790:
  6091                           	line	71
  6092                           	
  6093  07C9                     l3464:	
  6094  07C9  09B1               	comf	(___fttol@lval),f
  6095  07CA  09B2               	comf	(___fttol@lval+1),f
  6096  07CB  09B3               	comf	(___fttol@lval+2),f
  6097  07CC  09B4               	comf	(___fttol@lval+3),f
  6098  07CD  0AB1               	incf	(___fttol@lval),f
  6099  07CE  1903               	skipnz
  6100  07CF  0AB2               	incf	(___fttol@lval+1),f
  6101  07D0  1903               	skipnz
  6102  07D1  0AB3               	incf	(___fttol@lval+2),f
  6103  07D2  1903               	skipnz
  6104  07D3  0AB4               	incf	(___fttol@lval+3),f
  6105  07D4  2FD5               	goto	l3466
  6106                           	
  6107  07D5                     l1594:	
  6108                           	line	72
  6109                           	
  6110  07D5                     l3466:	
  6111  07D5  0834               	movf	(___fttol@lval+3),w
  6112  07D6  00AB               	movwf	(?___fttol+3)
  6113  07D7  0833               	movf	(___fttol@lval+2),w
  6114  07D8  00AA               	movwf	(?___fttol+2)
  6115  07D9  0832               	movf	(___fttol@lval+1),w
  6116  07DA  00A9               	movwf	(?___fttol+1)
  6117  07DB  0831               	movf	(___fttol@lval),w
  6118  07DC  00A8               	movwf	(?___fttol)
  6119                           
  6120  07DD  2FDE               	goto	l1584
  6121                           	
  6122  07DE                     l3468:	
  6123                           	line	73
  6124                           	
  6125  07DE                     l1584:	
  6126  07DE  0008               	return
  6127                           	opt stack 0
  6128                           GLOBAL	__end_of___fttol
  6129  07DF                     	__end_of___fttol:
  6130 ;; =============== function ___fttol ends ============
  6131                           
  6132                           	signat	___fttol,4220
  6133                           	global	___lmul
  6134                           psect	text786,local,class=CODE,delta=2
  6135                           global __ptext786
  6136  0C52                     __ptext786:
  6137                           
  6138 ;; *************** function ___lmul *****************
  6139 ;; Defined at:
  6140 ;;		line 3 in file "C:\Program Files (x86)\HI-TECH Software\PICC\9.82\sources\lmul.c"
  6141 ;; Parameters:    Size  Location     Type
  6142 ;;  multiplier      4    0[BANK0 ] unsigned long 
  6143 ;;  multiplicand    4    4[BANK0 ] unsigned long 
  6144 ;; Auto vars:     Size  Location     Type
  6145 ;;  product         4    9[BANK0 ] unsigned long 
  6146 ;; Return value:  Size  Location     Type
  6147 ;;                  4    0[BANK0 ] unsigned long 
  6148 ;; Registers used:
  6149 ;;		wreg, status,2, status,0
  6150 ;; Tracked objects:
  6151 ;;		On entry : 0/0
  6152 ;;		On exit  : 0/0
  6153 ;;		Unchanged: 0/0
  6154 ;; Data sizes:     COMMON   BANK0   BANK1   BANK3   BANK2
  6155 ;;      Params:         0       8       0       0       0
  6156 ;;      Locals:         0       4       0       0       0
  6157 ;;      Temps:          0       1       0       0       0
  6158 ;;      Totals:         0      13       0       0       0
  6159 ;;Total ram usage:       13 bytes
  6160 ;; Hardware stack levels used:    1
  6161 ;; Hardware stack levels required when called:    1
  6162 ;; This function calls:
  6163 ;;		Nothing
  6164 ;; This function is called by:
  6165 ;;		_lcd_putnumf
  6166 ;; This function uses a non-reentrant model
  6167 ;;
  6168                           psect	text786
  6169                           	file	"C:\Program Files (x86)\HI-TECH Software\PICC\9.82\sources\lmul.c"
  6170                           	line	3
  6171                           	global	__size_of___lmul
  6172  004C                     	__size_of___lmul	equ	__end_of___lmul-___lmul
  6173                           	
  6174  0C52                     ___lmul:	
  6175                           	opt	stack 5
  6176                           ; Regs used in ___lmul: [wreg+status,2+status,0]
  6177                           	line	4
  6178                           	
  6179  0C52                     l4074:	
  6180  0C52  3000               	movlw	0
  6181  0C53  1283               	bcf	status, 5	;RP0=0, select bank0
  6182  0C54  1303               	bcf	status, 6	;RP1=0, select bank0
  6183  0C55  00AC               	movwf	(___lmul@product+3)
  6184  0C56  3000               	movlw	0
  6185  0C57  00AB               	movwf	(___lmul@product+2)
  6186  0C58  3000               	movlw	0
  6187  0C59  00AA               	movwf	(___lmul@product+1)
  6188  0C5A  3000               	movlw	0
  6189  0C5B  00A9               	movwf	(___lmul@product)
  6190                           
  6191  0C5C  2C5D               	goto	l4076
  6192                           	line	6
  6193                           	
  6194  0C5D                     l1549:	
  6195                           	line	7
  6196                           	
  6197  0C5D                     l4076:	
  6198  0C5D  1C20               	btfss	(___lmul@multiplier),(0)&7
  6199  0C5E  2C60               	goto	u3821
  6200  0C5F  2C61               	goto	u3820
  6201  0C60                     u3821:
  6202  0C60  2C79               	goto	l4080
  6203  0C61                     u3820:
  6204                           	line	8
  6205                           	
  6206  0C61                     l4078:	
  6207  0C61  0824               	movf	(___lmul@multiplicand),w
  6208  0C62  07A9               	addwf	(___lmul@product),f
  6209  0C63  0825               	movf	(___lmul@multiplicand+1),w
  6210  0C64  1103               	clrz
  6211  0C65  1803               	skipnc
  6212  0C66  3E01               	addlw	1
  6213  0C67  1903               	skipnz
  6214  0C68  2C6A               	goto	u3831
  6215  0C69  07AA               	addwf	(___lmul@product+1),f
  6216  0C6A                     u3831:
  6217  0C6A  0826               	movf	(___lmul@multiplicand+2),w
  6218  0C6B  1103               	clrz
  6219  0C6C  1803               	skipnc
  6220  0C6D  3E01               	addlw	1
  6221  0C6E  1903               	skipnz
  6222  0C6F  2C71               	goto	u3832
  6223  0C70  07AB               	addwf	(___lmul@product+2),f
  6224  0C71                     u3832:
  6225  0C71  0827               	movf	(___lmul@multiplicand+3),w
  6226  0C72  1103               	clrz
  6227  0C73  1803               	skipnc
  6228  0C74  3E01               	addlw	1
  6229  0C75  1903               	skipnz
  6230  0C76  2C78               	goto	u3833
  6231  0C77  07AC               	addwf	(___lmul@product+3),f
  6232  0C78                     u3833:
  6233                           
  6234  0C78  2C79               	goto	l4080
  6235                           	
  6236  0C79                     l1550:	
  6237                           	line	9
  6238                           	
  6239  0C79                     l4080:	
  6240  0C79  3001               	movlw	01h
  6241  0C7A  00A8               	movwf	(??___lmul+0)+0
  6242  0C7B                     u3845:
  6243  0C7B  1003               	clrc
  6244  0C7C  0DA4               	rlf	(___lmul@multiplicand),f
  6245  0C7D  0DA5               	rlf	(___lmul@multiplicand+1),f
  6246  0C7E  0DA6               	rlf	(___lmul@multiplicand+2),f
  6247  0C7F  0DA7               	rlf	(___lmul@multiplicand+3),f
  6248  0C80  0BA8               	decfsz	(??___lmul+0)+0
  6249  0C81  2C7B               	goto	u3845
  6250                           	line	10
  6251                           	
  6252  0C82                     l4082:	
  6253  0C82  3001               	movlw	01h
  6254  0C83                     u3855:
  6255  0C83  1003               	clrc
  6256  0C84  0CA3               	rrf	(___lmul@multiplier+3),f
  6257  0C85  0CA2               	rrf	(___lmul@multiplier+2),f
  6258  0C86  0CA1               	rrf	(___lmul@multiplier+1),f
  6259  0C87  0CA0               	rrf	(___lmul@multiplier),f
  6260  0C88  3EFF               	addlw	-1
  6261  0C89  1D03               	skipz
  6262  0C8A  2C83               	goto	u3855
  6263                           
  6264                           	line	11
  6265  0C8B  0823               	movf	(___lmul@multiplier+3),w
  6266  0C8C  0422               	iorwf	(___lmul@multiplier+2),w
  6267  0C8D  0421               	iorwf	(___lmul@multiplier+1),w
  6268  0C8E  0420               	iorwf	(___lmul@multiplier),w
  6269  0C8F  1D03               	skipz
  6270  0C90  2C92               	goto	u3861
  6271  0C91  2C93               	goto	u3860
  6272  0C92                     u3861:
  6273  0C92  2C5D               	goto	l4076
  6274  0C93                     u3860:
  6275  0C93  2C94               	goto	l4084
  6276                           	
  6277  0C94                     l1551:	
  6278                           	line	12
  6279                           	
  6280  0C94                     l4084:	
  6281  0C94  082C               	movf	(___lmul@product+3),w
  6282  0C95  00A3               	movwf	(?___lmul+3)
  6283  0C96  082B               	movf	(___lmul@product+2),w
  6284  0C97  00A2               	movwf	(?___lmul+2)
  6285  0C98  082A               	movf	(___lmul@product+1),w
  6286  0C99  00A1               	movwf	(?___lmul+1)
  6287  0C9A  0829               	movf	(___lmul@product),w
  6288  0C9B  00A0               	movwf	(?___lmul)
  6289                           
  6290  0C9C  2C9D               	goto	l1552
  6291                           	
  6292  0C9D                     l4086:	
  6293                           	line	13
  6294                           	
  6295  0C9D                     l1552:	
  6296  0C9D  0008               	return
  6297                           	opt stack 0
  6298                           GLOBAL	__end_of___lmul
  6299  0C9E                     	__end_of___lmul:
  6300 ;; =============== function ___lmul ends ============
  6301                           
  6302                           	signat	___lmul,8316
  6303                           	global	___ftpack
  6304                           psect	text787,local,class=CODE,delta=2
  6305                           global __ptext787
  6306  0DE1                     __ptext787:
  6307                           
  6308 ;; *************** function ___ftpack *****************
  6309 ;; Defined at:
  6310 ;;		line 63 in file "C:\Program Files (x86)\HI-TECH Software\PICC\9.82\sources\float.c"
  6311 ;; Parameters:    Size  Location     Type
  6312 ;;  arg             3    0[BANK0 ] unsigned um
  6313 ;;  exp             1    3[BANK0 ] unsigned char 
  6314 ;;  sign            1    4[BANK0 ] unsigned char 
  6315 ;; Auto vars:     Size  Location     Type
  6316 ;;		None
  6317 ;; Return value:  Size  Location     Type
  6318 ;;                  3    0[BANK0 ] float 
  6319 ;; Registers used:
  6320 ;;		wreg, status,2, status,0
  6321 ;; Tracked objects:
  6322 ;;		On entry : 0/0
  6323 ;;		On exit  : 0/0
  6324 ;;		Unchanged: 0/0
  6325 ;; Data sizes:     COMMON   BANK0   BANK1   BANK3   BANK2
  6326 ;;      Params:         0       5       0       0       0
  6327 ;;      Locals:         0       0       0       0       0
  6328 ;;      Temps:          0       3       0       0       0
  6329 ;;      Totals:         0       8       0       0       0
  6330 ;;Total ram usage:        8 bytes
  6331 ;; Hardware stack levels used:    1
  6332 ;; Hardware stack levels required when called:    1
  6333 ;; This function calls:
  6334 ;;		Nothing
  6335 ;; This function is called by:
  6336 ;;		___ftadd
  6337 ;;		___ftdiv
  6338 ;;		___ftmul
  6339 ;;		___lltoft
  6340 ;;		___lbtoft
  6341 ;;		___abtoft
  6342 ;;		___awtoft
  6343 ;;		___lwtoft
  6344 ;;		___altoft
  6345 ;;		___attoft
  6346 ;;		___lttoft
  6347 ;; This function uses a non-reentrant model
  6348 ;;
  6349                           psect	text787
  6350                           	file	"C:\Program Files (x86)\HI-TECH Software\PICC\9.82\sources\float.c"
  6351                           	line	63
  6352                           	global	__size_of___ftpack
  6353  007D                     	__size_of___ftpack	equ	__end_of___ftpack-___ftpack
  6354                           	
  6355  0DE1                     ___ftpack:	
  6356                           	opt	stack 4
  6357                           ; Regs used in ___ftpack: [wreg+status,2+status,0]
  6358                           	line	64
  6359                           	
  6360  0DE1                     l4044:	
  6361  0DE1  1283               	bcf	status, 5	;RP0=0, select bank0
  6362  0DE2  1303               	bcf	status, 6	;RP1=0, select bank0
  6363  0DE3  0823               	movf	(___ftpack@exp),w
  6364  0DE4  1D03               	skipz
  6365  0DE5  2DE7               	goto	u3710
  6366  0DE6  2DEF               	goto	l4048
  6367  0DE7                     u3710:
  6368                           	
  6369  0DE7                     l4046:	
  6370  0DE7  0822               	movf	(___ftpack@arg+2),w
  6371  0DE8  0421               	iorwf	(___ftpack@arg+1),w
  6372  0DE9  0420               	iorwf	(___ftpack@arg),w
  6373  0DEA  1D03               	skipz
  6374  0DEB  2DED               	goto	u3721
  6375  0DEC  2DEE               	goto	u3720
  6376  0DED                     u3721:
  6377  0DED  2E05               	goto	l4054
  6378  0DEE                     u3720:
  6379  0DEE  2DEF               	goto	l4048
  6380                           	
  6381  0DEF                     l1808:	
  6382                           	line	65
  6383                           	
  6384  0DEF                     l4048:	
  6385  0DEF  3000               	movlw	0x0
  6386  0DF0  00A0               	movwf	(?___ftpack)
  6387  0DF1  3000               	movlw	0x0
  6388  0DF2  00A1               	movwf	(?___ftpack+1)
  6389  0DF3  3000               	movlw	0x0
  6390  0DF4  00A2               	movwf	(?___ftpack+2)
  6391  0DF5  2E5D               	goto	l1809
  6392                           	
  6393  0DF6                     l4050:	
  6394  0DF6  2E5D               	goto	l1809
  6395                           	
  6396  0DF7                     l1806:	
  6397                           	line	66
  6398  0DF7  2E05               	goto	l4054
  6399                           	
  6400  0DF8                     l1811:	
  6401                           	line	67
  6402                           	
  6403  0DF8                     l4052:	
  6404  0DF8  3001               	movlw	(01h)
  6405  0DF9  00A5               	movwf	(??___ftpack+0)+0
  6406  0DFA  0825               	movf	(??___ftpack+0)+0,w
  6407  0DFB  07A3               	addwf	(___ftpack@exp),f
  6408                           	line	68
  6409  0DFC  3001               	movlw	01h
  6410  0DFD                     u3735:
  6411  0DFD  1003               	clrc
  6412  0DFE  0CA2               	rrf	(___ftpack@arg+2),f
  6413  0DFF  0CA1               	rrf	(___ftpack@arg+1),f
  6414  0E00  0CA0               	rrf	(___ftpack@arg),f
  6415  0E01  3EFF               	addlw	-1
  6416  0E02  1D03               	skipz
  6417  0E03  2DFD               	goto	u3735
  6418                           
  6419  0E04  2E05               	goto	l4054
  6420                           	line	69
  6421                           	
  6422  0E05                     l1810:	
  6423                           	line	66
  6424                           	
  6425  0E05                     l4054:	
  6426  0E05  30FE               	movlw	low highword(0FE0000h)
  6427  0E06  0522               	andwf	(___ftpack@arg+2),w
  6428  0E07  1D03               	btfss	status,2
  6429  0E08  2E0A               	goto	u3741
  6430  0E09  2E0B               	goto	u3740
  6431  0E0A                     u3741:
  6432  0E0A  2DF8               	goto	l4052
  6433  0E0B                     u3740:
  6434  0E0B  2E23               	goto	l1813
  6435                           	
  6436  0E0C                     l1812:	
  6437                           	line	70
  6438  0E0C  2E23               	goto	l1813
  6439                           	
  6440  0E0D                     l1814:	
  6441                           	line	71
  6442                           	
  6443  0E0D                     l4056:	
  6444  0E0D  3001               	movlw	(01h)
  6445  0E0E  00A5               	movwf	(??___ftpack+0)+0
  6446  0E0F  0825               	movf	(??___ftpack+0)+0,w
  6447  0E10  07A3               	addwf	(___ftpack@exp),f
  6448                           	line	72
  6449                           	
  6450  0E11                     l4058:	
  6451  0E11  3001               	movlw	01h
  6452  0E12  07A0               	addwf	(___ftpack@arg),f
  6453  0E13  3000               	movlw	0
  6454  0E14  1803               	skipnc
  6455  0E15  3001               movlw 1
  6456  0E16  07A1               	addwf	(___ftpack@arg+1),f
  6457  0E17  3000               	movlw	0
  6458  0E18  1803               	skipnc
  6459  0E19  3001               movlw 1
  6460  0E1A  07A2               	addwf	(___ftpack@arg+2),f
  6461                           	line	73
  6462                           	
  6463  0E1B                     l4060:	
  6464  0E1B  3001               	movlw	01h
  6465  0E1C                     u3755:
  6466  0E1C  1003               	clrc
  6467  0E1D  0CA2               	rrf	(___ftpack@arg+2),f
  6468  0E1E  0CA1               	rrf	(___ftpack@arg+1),f
  6469  0E1F  0CA0               	rrf	(___ftpack@arg),f
  6470  0E20  3EFF               	addlw	-1
  6471  0E21  1D03               	skipz
  6472  0E22  2E1C               	goto	u3755
  6473                           
  6474                           	line	74
  6475                           	
  6476  0E23                     l1813:	
  6477                           	line	70
  6478  0E23  30FF               	movlw	low highword(0FF0000h)
  6479  0E24  0522               	andwf	(___ftpack@arg+2),w
  6480  0E25  1D03               	btfss	status,2
  6481  0E26  2E28               	goto	u3761
  6482  0E27  2E29               	goto	u3760
  6483  0E28                     u3761:
  6484  0E28  2E0D               	goto	l4056
  6485  0E29                     u3760:
  6486  0E29  2E36               	goto	l4064
  6487                           	
  6488  0E2A                     l1815:	
  6489                           	line	75
  6490  0E2A  2E36               	goto	l4064
  6491                           	
  6492  0E2B                     l1817:	
  6493                           	line	76
  6494                           	
  6495  0E2B                     l4062:	
  6496  0E2B  3001               	movlw	low(01h)
  6497  0E2C  02A3               	subwf	(___ftpack@exp),f
  6498                           	line	77
  6499  0E2D  3001               	movlw	01h
  6500  0E2E                     u3775:
  6501  0E2E  1003               	clrc
  6502  0E2F  0DA0               	rlf	(___ftpack@arg),f
  6503  0E30  0DA1               	rlf	(___ftpack@arg+1),f
  6504  0E31  0DA2               	rlf	(___ftpack@arg+2),f
  6505  0E32  3EFF               	addlw	-1
  6506  0E33  1D03               	skipz
  6507  0E34  2E2E               	goto	u3775
  6508  0E35  2E36               	goto	l4064
  6509                           	line	78
  6510                           	
  6511  0E36                     l1816:	
  6512                           	line	75
  6513                           	
  6514  0E36                     l4064:	
  6515  0E36  1FA1               	btfss	(___ftpack@arg+1),(15)&7
  6516  0E37  2E39               	goto	u3781
  6517  0E38  2E3A               	goto	u3780
  6518  0E39                     u3781:
  6519  0E39  2E2B               	goto	l4062
  6520  0E3A                     u3780:
  6521                           	
  6522  0E3A                     l1818:	
  6523                           	line	79
  6524  0E3A  1823               	btfsc	(___ftpack@exp),(0)&7
  6525  0E3B  2E3D               	goto	u3791
  6526  0E3C  2E3E               	goto	u3790
  6527  0E3D                     u3791:
  6528  0E3D  2E44               	goto	l1819
  6529  0E3E                     u3790:
  6530                           	line	80
  6531                           	
  6532  0E3E                     l4066:	
  6533  0E3E  30FF               	movlw	0FFh
  6534  0E3F  05A0               	andwf	(___ftpack@arg),f
  6535  0E40  307F               	movlw	07Fh
  6536  0E41  05A1               	andwf	(___ftpack@arg+1),f
  6537  0E42  30FF               	movlw	0FFh
  6538  0E43  05A2               	andwf	(___ftpack@arg+2),f
  6539                           	
  6540  0E44                     l1819:	
  6541                           	line	81
  6542  0E44  1003               	clrc
  6543  0E45  0CA3               	rrf	(___ftpack@exp),f
  6544                           
  6545                           	line	82
  6546                           	
  6547  0E46                     l4068:	
  6548  0E46  0823               	movf	(___ftpack@exp),w
  6549  0E47  00A5               	movwf	((??___ftpack+0)+0)
  6550  0E48  01A6               	clrf	((??___ftpack+0)+0+1)
  6551  0E49  01A7               	clrf	((??___ftpack+0)+0+2)
  6552  0E4A  3010               	movlw	010h
  6553  0E4B                     u3805:
  6554  0E4B  1003               	clrc
  6555  0E4C  0DA5               	rlf	(??___ftpack+0)+0,f
  6556  0E4D  0DA6               	rlf	(??___ftpack+0)+1,f
  6557  0E4E  0DA7               	rlf	(??___ftpack+0)+2,f
  6558  0E4F                     u3800:
  6559  0E4F  3EFF               	addlw	-1
  6560  0E50  1D03               	skipz
  6561  0E51  2E4B               	goto	u3805
  6562  0E52  0825               	movf	0+(??___ftpack+0)+0,w
  6563  0E53  04A0               	iorwf	(___ftpack@arg),f
  6564  0E54  0826               	movf	1+(??___ftpack+0)+0,w
  6565  0E55  04A1               	iorwf	(___ftpack@arg+1),f
  6566  0E56  0827               	movf	2+(??___ftpack+0)+0,w
  6567  0E57  04A2               	iorwf	(___ftpack@arg+2),f
  6568                           	line	83
  6569                           	
  6570  0E58                     l4070:	
  6571  0E58  0824               	movf	(___ftpack@sign),w
  6572  0E59  1D03               	skipz
  6573  0E5A  2E5C               	goto	u3810
  6574  0E5B  2E5D               	goto	l1820
  6575  0E5C                     u3810:
  6576                           	line	84
  6577                           	
  6578  0E5C                     l4072:	
  6579  0E5C  17A2               	bsf	(___ftpack@arg)+(23/8),(23)&7
  6580                           	
  6581  0E5D                     l1820:	
  6582                           	line	85
  6583                           	line	86
  6584                           	
  6585  0E5D                     l1809:	
  6586  0E5D  0008               	return
  6587                           	opt stack 0
  6588                           GLOBAL	__end_of___ftpack
  6589  0E5E                     	__end_of___ftpack:
  6590 ;; =============== function ___ftpack ends ============
  6591                           
  6592                           	signat	___ftpack,12411
  6593                           	global	___bmul
  6594                           psect	text788,local,class=CODE,delta=2
  6595                           global __ptext788
  6596  07DF                     __ptext788:
  6597                           
  6598 ;; *************** function ___bmul *****************
  6599 ;; Defined at:
  6600 ;;		line 3 in file "C:\Program Files (x86)\HI-TECH Software\PICC\9.82\sources\bmul.c"
  6601 ;; Parameters:    Size  Location     Type
  6602 ;;  multiplier      1    wreg     unsigned char 
  6603 ;;  multiplicand    1    0[BANK0 ] unsigned char 
  6604 ;; Auto vars:     Size  Location     Type
  6605 ;;  multiplier      1    3[BANK0 ] unsigned char 
  6606 ;;  product         1    2[BANK0 ] unsigned char 
  6607 ;; Return value:  Size  Location     Type
  6608 ;;                  1    wreg      unsigned char 
  6609 ;; Registers used:
  6610 ;;		wreg, status,2, status,0
  6611 ;; Tracked objects:
  6612 ;;		On entry : 0/0
  6613 ;;		On exit  : 0/0
  6614 ;;		Unchanged: 0/0
  6615 ;; Data sizes:     COMMON   BANK0   BANK1   BANK3   BANK2
  6616 ;;      Params:         0       1       0       0       0
  6617 ;;      Locals:         0       2       0       0       0
  6618 ;;      Temps:          0       1       0       0       0
  6619 ;;      Totals:         0       4       0       0       0
  6620 ;;Total ram usage:        4 bytes
  6621 ;; Hardware stack levels used:    1
  6622 ;; Hardware stack levels required when called:    1
  6623 ;; This function calls:
  6624 ;;		Nothing
  6625 ;; This function is called by:
  6626 ;;		_main
  6627 ;; This function uses a non-reentrant model
  6628 ;;
  6629                           psect	text788
  6630                           	file	"C:\Program Files (x86)\HI-TECH Software\PICC\9.82\sources\bmul.c"
  6631                           	line	3
  6632                           	global	__size_of___bmul
  6633  001A                     	__size_of___bmul	equ	__end_of___bmul-___bmul
  6634                           	
  6635  07DF                     ___bmul:	
  6636                           	opt	stack 6
  6637                           ; Regs used in ___bmul: [wreg+status,2+status,0]
  6638                           ;___bmul@multiplier stored from wreg
  6639  07DF  1283               	bcf	status, 5	;RP0=0, select bank0
  6640  07E0  1303               	bcf	status, 6	;RP1=0, select bank0
  6641  07E1  00A3               	movwf	(___bmul@multiplier)
  6642                           	line	4
  6643                           	
  6644  07E2                     l4030:	
  6645  07E2  01A2               	clrf	(___bmul@product)
  6646                           	line	6
  6647                           	
  6648  07E3                     l1468:	
  6649                           	line	7
  6650  07E3  1C23               	btfss	(___bmul@multiplier),(0)&7
  6651  07E4  2FE6               	goto	u3691
  6652  07E5  2FE7               	goto	u3690
  6653  07E6                     u3691:
  6654  07E6  2FEC               	goto	l4034
  6655  07E7                     u3690:
  6656                           	line	8
  6657                           	
  6658  07E7                     l4032:	
  6659  07E7  0820               	movf	(___bmul@multiplicand),w
  6660  07E8  00A1               	movwf	(??___bmul+0)+0
  6661  07E9  0821               	movf	(??___bmul+0)+0,w
  6662  07EA  07A2               	addwf	(___bmul@product),f
  6663  07EB  2FEC               	goto	l4034
  6664                           	
  6665  07EC                     l1469:	
  6666                           	line	9
  6667                           	
  6668  07EC                     l4034:	
  6669  07EC  1003               	clrc
  6670  07ED  0DA0               	rlf	(___bmul@multiplicand),f
  6671                           
  6672                           	line	10
  6673                           	
  6674  07EE                     l4036:	
  6675  07EE  1003               	clrc
  6676  07EF  0CA3               	rrf	(___bmul@multiplier),f
  6677                           
  6678                           	line	11
  6679                           	
  6680  07F0                     l4038:	
  6681  07F0  08A3               	movf	(___bmul@multiplier),f
  6682  07F1  1D03               	skipz
  6683  07F2  2FF4               	goto	u3701
  6684  07F3  2FF5               	goto	u3700
  6685  07F4                     u3701:
  6686  07F4  2FE3               	goto	l1468
  6687  07F5                     u3700:
  6688  07F5  2FF6               	goto	l4040
  6689                           	
  6690  07F6                     l1470:	
  6691                           	line	12
  6692                           	
  6693  07F6                     l4040:	
  6694  07F6  0822               	movf	(___bmul@product),w
  6695  07F7  2FF8               	goto	l1471
  6696                           	
  6697  07F8                     l4042:	
  6698                           	line	13
  6699                           	
  6700  07F8                     l1471:	
  6701  07F8  0008               	return
  6702                           	opt stack 0
  6703                           GLOBAL	__end_of___bmul
  6704  07F9                     	__end_of___bmul:
  6705 ;; =============== function ___bmul ends ============
  6706                           
  6707                           	signat	___bmul,8313
  6708                           	global	_delay_ms
  6709                           psect	text789,local,class=CODE,delta=2
  6710                           global __ptext789
  6711  0B2C                     __ptext789:
  6712                           
  6713 ;; *************** function _delay_ms *****************
  6714 ;; Defined at:
  6715 ;;		line 141 in file "C:\Users\may\OneDrive\WeiJi\Mplab_workspace\work_together1\Untitled.c"
  6716 ;; Parameters:    Size  Location     Type
  6717 ;;  ms              2    0[BANK0 ] unsigned int 
  6718 ;; Auto vars:     Size  Location     Type
  6719 ;;  j               2    4[BANK0 ] unsigned int 
  6720 ;;  i               2    2[BANK0 ] unsigned int 
  6721 ;; Return value:  Size  Location     Type
  6722 ;;		None               void
  6723 ;; Registers used:
  6724 ;;		wreg, status,2
  6725 ;; Tracked objects:
  6726 ;;		On entry : 0/0
  6727 ;;		On exit  : 0/0
  6728 ;;		Unchanged: 0/0
  6729 ;; Data sizes:     COMMON   BANK0   BANK1   BANK3   BANK2
  6730 ;;      Params:         0       2       0       0       0
  6731 ;;      Locals:         0       4       0       0       0
  6732 ;;      Temps:          0       0       0       0       0
  6733 ;;      Totals:         0       6       0       0       0
  6734 ;;Total ram usage:        6 bytes
  6735 ;; Hardware stack levels used:    1
  6736 ;; Hardware stack levels required when called:    1
  6737 ;; This function calls:
  6738 ;;		Nothing
  6739 ;; This function is called by:
  6740 ;;		_lcd_init
  6741 ;;		_lcd_command
  6742 ;;		_lcd_data
  6743 ;;		_lcd_clear
  6744 ;;		_keyboard_scan
  6745 ;; This function uses a non-reentrant model
  6746 ;;
  6747                           psect	text789
  6748                           	file	"C:\Users\may\OneDrive\WeiJi\Mplab_workspace\work_together1\Untitled.c"
  6749                           	line	141
  6750                           	global	__size_of_delay_ms
  6751  0034                     	__size_of_delay_ms	equ	__end_of_delay_ms-_delay_ms
  6752                           	
  6753  0B2C                     _delay_ms:	
  6754                           	opt	stack 4
  6755                           ; Regs used in _delay_ms: [wreg+status,2]
  6756                           	line	143
  6757                           	
  6758  0B2C                     l4018:	
  6759                           ;Untitled.c: 142: unsigned int i, j;
  6760                           ;Untitled.c: 143: for (i = 0; i < ms; i++) {
  6761  0B2C  1283               	bcf	status, 5	;RP0=0, select bank0
  6762  0B2D  1303               	bcf	status, 6	;RP1=0, select bank0
  6763  0B2E  01A2               	clrf	(delay_ms@i)
  6764  0B2F  01A3               	clrf	(delay_ms@i+1)
  6765  0B30  2B54               	goto	l733
  6766                           	
  6767  0B31                     l734:	
  6768                           	line	144
  6769                           	
  6770  0B31                     l4020:	
  6771                           ;Untitled.c: 144: for (j = 0; j < 1200; j++);
  6772  0B31  01A4               	clrf	(delay_ms@j)
  6773  0B32  01A5               	clrf	(delay_ms@j+1)
  6774                           	
  6775  0B33                     l4022:	
  6776  0B33  3004               	movlw	high(04B0h)
  6777  0B34  0225               	subwf	(delay_ms@j+1),w
  6778  0B35  30B0               	movlw	low(04B0h)
  6779  0B36  1903               	skipnz
  6780  0B37  0224               	subwf	(delay_ms@j),w
  6781  0B38  1C03               	skipc
  6782  0B39  2B3B               	goto	u3661
  6783  0B3A  2B3C               	goto	u3660
  6784  0B3B                     u3661:
  6785  0B3B  2B3E               	goto	l4026
  6786  0B3C                     u3660:
  6787  0B3C  2B4E               	goto	l4028
  6788                           	
  6789  0B3D                     l4024:	
  6790  0B3D  2B4E               	goto	l4028
  6791                           	
  6792  0B3E                     l735:	
  6793                           	
  6794  0B3E                     l4026:	
  6795  0B3E  3001               	movlw	low(01h)
  6796  0B3F  07A4               	addwf	(delay_ms@j),f
  6797  0B40  1803               	skipnc
  6798  0B41  0AA5               	incf	(delay_ms@j+1),f
  6799  0B42  3000               	movlw	high(01h)
  6800  0B43  07A5               	addwf	(delay_ms@j+1),f
  6801  0B44  3004               	movlw	high(04B0h)
  6802  0B45  0225               	subwf	(delay_ms@j+1),w
  6803  0B46  30B0               	movlw	low(04B0h)
  6804  0B47  1903               	skipnz
  6805  0B48  0224               	subwf	(delay_ms@j),w
  6806  0B49  1C03               	skipc
  6807  0B4A  2B4C               	goto	u3671
  6808  0B4B  2B4D               	goto	u3670
  6809  0B4C                     u3671:
  6810  0B4C  2B3E               	goto	l4026
  6811  0B4D                     u3670:
  6812  0B4D  2B4E               	goto	l4028
  6813                           	
  6814  0B4E                     l736:	
  6815                           	line	143
  6816                           	
  6817  0B4E                     l4028:	
  6818  0B4E  3001               	movlw	low(01h)
  6819  0B4F  07A2               	addwf	(delay_ms@i),f
  6820  0B50  1803               	skipnc
  6821  0B51  0AA3               	incf	(delay_ms@i+1),f
  6822  0B52  3000               	movlw	high(01h)
  6823  0B53  07A3               	addwf	(delay_ms@i+1),f
  6824                           	
  6825  0B54                     l733:	
  6826  0B54  0821               	movf	(delay_ms@ms+1),w
  6827  0B55  0223               	subwf	(delay_ms@i+1),w
  6828  0B56  1D03               	skipz
  6829  0B57  2B5A               	goto	u3685
  6830  0B58  0820               	movf	(delay_ms@ms),w
  6831  0B59  0222               	subwf	(delay_ms@i),w
  6832  0B5A                     u3685:
  6833  0B5A  1C03               	skipc
  6834  0B5B  2B5D               	goto	u3681
  6835  0B5C  2B5E               	goto	u3680
  6836  0B5D                     u3681:
  6837  0B5D  2B31               	goto	l4020
  6838  0B5E                     u3680:
  6839  0B5E  2B5F               	goto	l738
  6840                           	
  6841  0B5F                     l737:	
  6842                           	line	146
  6843                           	
  6844  0B5F                     l738:	
  6845  0B5F  0008               	return
  6846                           	opt stack 0
  6847                           GLOBAL	__end_of_delay_ms
  6848  0B60                     	__end_of_delay_ms:
  6849 ;; =============== function _delay_ms ends ============
  6850                           
  6851                           	signat	_delay_ms,4216
  6852                           	global	_isr
  6853                           psect	text790,local,class=CODE,delta=2
  6854                           global __ptext790
  6855  0C0B                     __ptext790:
  6856                           
  6857 ;; *************** function _isr *****************
  6858 ;; Defined at:
  6859 ;;		line 108 in file "C:\Users\may\OneDrive\WeiJi\Mplab_workspace\work_together1\Untitled.c"
  6860 ;; Parameters:    Size  Location     Type
  6861 ;;		None
  6862 ;; Auto vars:     Size  Location     Type
  6863 ;;		None
  6864 ;; Return value:  Size  Location     Type
  6865 ;;		None               void
  6866 ;; Registers used:
  6867 ;;		wreg, status,2, status,0
  6868 ;; Tracked objects:
  6869 ;;		On entry : 0/0
  6870 ;;		On exit  : 0/0
  6871 ;;		Unchanged: 0/0
  6872 ;; Data sizes:     COMMON   BANK0   BANK1   BANK3   BANK2
  6873 ;;      Params:         0       0       0       0       0
  6874 ;;      Locals:         0       0       0       0       0
  6875 ;;      Temps:          5       0       0       0       0
  6876 ;;      Totals:         5       0       0       0       0
  6877 ;;Total ram usage:        5 bytes
  6878 ;; Hardware stack levels used:    1
  6879 ;; This function calls:
  6880 ;;		Nothing
  6881 ;; This function is called by:
  6882 ;;		Interrupt level 1
  6883 ;; This function uses a non-reentrant model
  6884 ;;
  6885                           psect	text790
  6886                           	file	"C:\Users\may\OneDrive\WeiJi\Mplab_workspace\work_together1\Untitled.c"
  6887                           	line	108
  6888                           	global	__size_of_isr
  6889  0047                     	__size_of_isr	equ	__end_of_isr-_isr
  6890                           	
  6891  0C0B                     _isr:	
  6892                           	opt	stack 3
  6893                           ; Regs used in _isr: [wreg+status,2+status,0]
  6894                           psect	intentry,class=CODE,delta=2
  6895                           global __pintentry
  6896  0004                     __pintentry:
  6897                           global interrupt_function
  6898  0004                     interrupt_function:
  6899                           	global saved_w
  6900  007E                     	saved_w	set	btemp+0
  6901  0004  00FE               	movwf	saved_w
  6902  0005  0E03               	swapf	status,w
  6903  0006  00F1               	movwf	(??_isr+1)
  6904  0007  0804               	movf	fsr0,w
  6905  0008  00F2               	movwf	(??_isr+2)
  6906  0009  080A               	movf	pclath,w
  6907  000A  00F3               	movwf	(??_isr+3)
  6908  000B  1283               	bcf	status, 5	;RP0=0, select bank0
  6909  000C  1303               	bcf	status, 6	;RP1=0, select bank0
  6910  000D  087F               	movf	btemp+1,w
  6911  000E  00F4               	movwf	(??_isr+4)
  6912  000F  120A  158A  2C0B   	ljmp	_isr
  6913                           psect	text790
  6914                           	line	109
  6915                           	
  6916  0C0B                     i1l3338:	
  6917                           ;Untitled.c: 109: if (TMR0IF) {
  6918  0C0B  1D0B               	btfss	(90/8),(90)&7
  6919  0C0C  2C0E               	goto	u245_21
  6920  0C0D  2C0F               	goto	u245_20
  6921  0C0E                     u245_21:
  6922  0C0E  2C47               	goto	i1l726
  6923  0C0F                     u245_20:
  6924                           	line	110
  6925                           	
  6926  0C0F                     i1l3340:	
  6927                           ;Untitled.c: 110: TMR0IF = 0;
  6928  0C0F  110B               	bcf	(90/8),(90)&7
  6929                           	line	111
  6930                           	
  6931  0C10                     i1l3342:	
  6932                           ;Untitled.c: 111: TMR0 = 0;
  6933  0C10  0181               	clrf	(1)	;volatile
  6934                           	line	113
  6935                           	
  6936  0C11                     i1l3344:	
  6937                           ;Untitled.c: 113: timer_count++;
  6938  0C11  3001               	movlw	01h
  6939  0C12  07F5               	addwf	(_timer_count),f	;volatile
  6940  0C13  3000               	movlw	0
  6941  0C14  1803               	skipnc
  6942  0C15  3001               movlw 1
  6943  0C16  07F6               	addwf	(_timer_count+1),f	;volatile
  6944  0C17  3000               	movlw	0
  6945  0C18  1803               	skipnc
  6946  0C19  3001               movlw 1
  6947  0C1A  07F7               	addwf	(_timer_count+2),f	;volatile
  6948  0C1B  3000               	movlw	0
  6949  0C1C  1803               	skipnc
  6950  0C1D  3001               movlw 1
  6951  0C1E  07F8               	addwf	(_timer_count+3),f	;volatile
  6952                           	line	114
  6953                           	
  6954  0C1F                     i1l3346:	
  6955                           ;Untitled.c: 114: if (timer_count >= target_count) {
  6956  0C1F  0868               	movf	(_target_count+3),w	;volatile
  6957  0C20  0278               	subwf	(_timer_count+3),w	;volatile
  6958  0C21  1D03               	skipz
  6959  0C22  2C2D               	goto	u246_25
  6960  0C23  0867               	movf	(_target_count+2),w	;volatile
  6961  0C24  0277               	subwf	(_timer_count+2),w	;volatile
  6962  0C25  1D03               	skipz
  6963  0C26  2C2D               	goto	u246_25
  6964  0C27  0866               	movf	(_target_count+1),w	;volatile
  6965  0C28  0276               	subwf	(_timer_count+1),w	;volatile
  6966  0C29  1D03               	skipz
  6967  0C2A  2C2D               	goto	u246_25
  6968  0C2B  0865               	movf	(_target_count),w	;volatile
  6969  0C2C  0275               	subwf	(_timer_count),w	;volatile
  6970  0C2D                     u246_25:
  6971  0C2D  1C03               	skipc
  6972  0C2E  2C30               	goto	u246_21
  6973  0C2F  2C31               	goto	u246_20
  6974  0C30                     u246_21:
  6975  0C30  2C47               	goto	i1l726
  6976  0C31                     u246_20:
  6977                           	line	115
  6978                           	
  6979  0C31                     i1l3348:	
  6980                           ;Untitled.c: 115: PORTDbits.RD3 = !PORTDbits.RD3;
  6981  0C31  3000               	movlw	0
  6982  0C32  1D88               	btfss	(8),3	;volatile
  6983  0C33  3001               	movlw	1
  6984  0C34  00F0               	movwf	(??_isr+0)+0
  6985  0C35  0DF0               	rlf	(??_isr+0)+0,f
  6986  0C36  0DF0               	rlf	(??_isr+0)+0,f
  6987  0C37  0DF0               	rlf	(??_isr+0)+0,f
  6988  0C38  0808               	movf	(8),w	;volatile
  6989  0C39  0670               	xorwf	(??_isr+0)+0,w
  6990  0C3A  39F7               	andlw	not (((1<<1)-1)<<3)
  6991  0C3B  0670               	xorwf	(??_isr+0)+0,w
  6992  0C3C  0088               	movwf	(8)	;volatile
  6993                           	line	116
  6994                           	
  6995  0C3D                     i1l3350:	
  6996                           ;Untitled.c: 116: timer_count = 0;
  6997  0C3D  3000               	movlw	0
  6998  0C3E  00F8               	movwf	(_timer_count+3)	;volatile
  6999  0C3F  3000               	movlw	0
  7000  0C40  00F7               	movwf	(_timer_count+2)	;volatile
  7001  0C41  3000               	movlw	0
  7002  0C42  00F6               	movwf	(_timer_count+1)	;volatile
  7003  0C43  3000               	movlw	0
  7004  0C44  00F5               	movwf	(_timer_count)	;volatile
  7005                           
  7006  0C45  2C47               	goto	i1l726
  7007                           	line	117
  7008                           	
  7009  0C46                     i1l725:	
  7010  0C46  2C47               	goto	i1l726
  7011                           	line	118
  7012                           	
  7013  0C47                     i1l724:	
  7014                           	line	119
  7015                           	
  7016  0C47                     i1l726:	
  7017  0C47  0874               	movf	(??_isr+4),w
  7018  0C48  00FF               	movwf	btemp+1
  7019  0C49  0873               	movf	(??_isr+3),w
  7020  0C4A  008A               	movwf	pclath
  7021  0C4B  0872               	movf	(??_isr+2),w
  7022  0C4C  0084               	movwf	fsr0
  7023  0C4D  0E71               	swapf	(??_isr+1)^0FFFFFF80h,w
  7024  0C4E  0083               	movwf	status
  7025  0C4F  0EFE               	swapf	saved_w,f
  7026  0C50  0E7E               	swapf	saved_w,w
  7027  0C51  0009               	retfie
  7028                           	opt stack 0
  7029                           GLOBAL	__end_of_isr
  7030  0C52                     	__end_of_isr:
  7031 ;; =============== function _isr ends ============
  7032                           
  7033                           	signat	_isr,88
  7034                           psect	text791,local,class=CODE,delta=2
  7035                           global __ptext791
  7036  0000                     __ptext791:
  7037                           	global	btemp
  7038  007E                     	btemp set 07Eh
  7039                           
  7040                           	DABS	1,126,2	;btemp
  7041                           	global	wtemp0
  7042  007E                     	wtemp0 set btemp


HI-TECH Software PICC Macro Assembler V9.82 build 9453 
Symbol Table                                                                                   Sun Apr 20 22:21:35 2025

                                  pc 0002                         lcd_data@data 0027  
                     ___bmul@product 0022                    _current_frequency 00EC  
                                 _RD 0C60                                   _WR 0C61  
                       ?_lcd_putnumf 005C                                   fsr 0004  
                       ___ftadd@exp1 005B                         ___ftadd@exp2 005A  
                       ___ftadd@sign 0059                                  l711 0AAA  
                                l720 043A                                  l721 043A  
                                l730 0DE0                                  l714 0372  
                                l715 0438                                  l733 0B54  
                                l741 0B94                                  l734 0B31  
                                l750 0B1A                                  l718 0437  
                                l735 0B3E                                  l751 0B01  
                                l719 0439                                  l736 0B4E  
                                l744 0FFF                                  l752 0B2B  
                                l760 00E0                                  l737 0B5F  
                                l729 0D80                                  l753 0B2B  
                                l761 00D7                                  l738 0B5F  
                                l770 01E9                                  l762 005B  
                                l747 0F73                                  l771 02DB  
                                l763 00E0                                  l780 0EE5  
                                l756 0ADA                                  l772 025C  
                                l764 011F                                  l781 0EDA  
                                l773 02E2                                  l765 00EB  
                                l782 0ED9                                  l790 0ED8  
                                l774 02F5                                  l766 0126  
                                l791 0EE7                                  l783 0EB6  
                                l767 02E3                                  l759 005A  
                                l784 0EA1                                  l768 01DE  
                                l785 0EC4                                  l769 0196  
                                l786 0EA3                                  l787 0EA7  
                                l779 0E75                                  l788 0EAC  
                                l789 0EB1                                  _GIE 005F  
                                _isr 0C0B                                  fsr0 0004  
                                indf 0000                         ___ftdiv@cntr 0040  
                       ___ftdiv@sign 0045                                 l1520 046C  
                               l1521 0582                                 l1530 04C5  
                               l1522 0489                                 l1531 04C6  
                               l4020 0B31                                 l1540 04FD  
                               l1532 04D4                                 l1524 0488  
                               l1541 050B                                 l1533 04C7  
                               l1525 0492                                 l4022 0B33  
                               l1470 07F6                                 l4030 07E2  
                               l1550 0C79                                 l1630 0CBF  
                               l1542 04FE                                 l1534 04DB  
                               l1526 0497                                 l1518 0474  
                               l1471 07F8                                 l1551 0C94  
                               l1631 0CC0                                 l1543 0512  
                               l1527 04DC                                 l1535 0513  
                               l1711 0BAA                                 l4024 0B3D  
                               l4040 07F6                                 l4032 07E7  
                               l1552 0C9D                                 l1632 0CE1  
                               l4120 0CBA                                 l1544 0528  
                               l1536 0513                                 l1528 04AC  
                               l1712 0B9C                                 l1633 0CF1  
                               l1545 053D                                 l1537 04E3  
                               l1713 0BB1                                 l4026 0B3E  
                               l4018 0B2C                                 l4042 07F8  
                               l4034 07EC                                 l1810 0E05  
                               l4050 0DF6                                 l1634 0CFB  
                               l4122 0CC0                                 l4130 0CF2  
                               l4114 0C9E                                 l1650 0D26  
                               l4210 0F26                                 l4202 0EEB  
                               l1546 0566                                 l1562 068C  
                               l1714 0BCA                                 l1811 0DF8  
                               l1627 0CF2                                 l1651 0D51  
                               l1539 04FC                                 l1563 0738  
                               l4028 0B4E                                 l4036 07EE  
                               l1468 07E3                                 l1820 0E5D  
                               l4060 0E1B                                 l1812 0E0C  
                               l4052 0DF8                                 l4044 0DE1  
                               l4132 0CFB                                 l4124 0CD2  
                               l1628 0CBA                                 l4116 0CA8  
                               l4140 0AB8                                 l1652 0D61  
                               l4212 0F2F                                 l4204 0EEE  
                               l4220 0E5E                                 l4300 0489  
                               l1564 06A5                                 l1580 0654  
                               l1572 059E                                 l1469 07EC  
                               l1813 0E23                                 l1549 0C5D  
                               l1629 0CAC                                 l1637 0AB7  
                               l1653 0D6B                                 l1565 06EB  
                               l1573 0670                                 l4038 07F0  
                               l4070 0E58                                 l4062 0E2B  
                               l1814 0E0D                                 l1806 0DF7  
                               l4054 0E05                                 l4046 0DE7  
                               l1590 07B1                                 l3430 0755  
                               l4126 0CE1                                 l4118 0CAC  
                               l1638 0AB8                                 l4134 0AAB  
                               l1646 0D62                                 l4150 0D26  
                               l4142 0CFC                                 l4214 0F5E  
                               l4206 0F1A                                 l4230 0E7C  
                               l4222 0E6C                                 l4310 049E  
                               l4302 048D                                 l1566 070D  
                               l1574 05B7                                 l1815 0E2A  
                               l1591 07BE                                 l1583 0756  
                               l1647 0D20                                 l1567 071C  
                               l1575 05F7                                 l4072 0E5C  
                               l1816 0E36                                 l4064 0E36  
                               l4056 0E0D                                 l1808 0DEF  
                               l4048 0DEF                                 l4080 0C79  
                               l1592 07B2                                 l3440 0776  
                               l1584 07DE                                 l3432 0756  
                               l4128 0CEA                                 l4136 0AB4  
                               l4160 0D5A                                 l4152 0D2F  
                               l1648 0D12                                 l4144 0D0E  
                               l4216 0F67                                 l4208 0F23  
                               l4240 0EA0                                 l4232 0E83  
                               l4224 0E74                                 l4320 04D4  
                               l4312 04AC                                 l4304 0491  
                               l1576 060C                                 l4400 059E  
                               l1817 0E2B                                 l1809 0E5D  
                               l1593 07C4                                 l1585 07A1  
                               l1649 0D25                                 l1577 0623  
                               l4066 0E3E                                 l1818 0E3A  
                               l4058 0E11                                 l4082 0C82  
                               l4074 0C52                                 l1594 07D5  
                               l1586 078D                                 l3450 078E  
                               l3442 0778                                 l3434 0768  
                               l3426 0739                                 l4138 0AB7  
                               l4154 0D41                                 l4146 0D12  
                               l4162 0D62                                 l4218 0F6A  
                               l4242 0EA3                                 l4250 0EB6  
                               l4234 0E89                                 l4226 0E75  
                               l4330 04FE                                 l4314 04B6  
                               l4322 04DC                                 l4306 0496  
                               l1578 0628                                 l4410 05E5  
                               l4402 05AF                                 l1819 0E44  
                               l1587 078E                                 l1579 063D  
                               l4068 0E46                                 l4084 0C94  
                               l4076 0C5D                                 l3460 07BE  
                               l1588 07A0                                 l3444 077C  
                               l3452 07A1                                 l3436 0769  
                               l3428 074C                                 l4164 0D6B  
                               l4156 0D4F                                 l4148 0D20  
                               l4244 0EA7                                 l4252 0EC4  
                               l4236 0E92                                 l4228 0E7B  
                               l4260 0EE5                                 l4340 053D  
                               l4332 050B                                 l4324 04E3  
                               l4316 04BC                                 l4308 0498  
                               l4420 05FB                                 l4412 05E6  
                               l4404 05B6                                 l4500 00E1  
                               l1589 07C5                                 l4086 0C9D  
                               l4078 0C61                                 l3454 07A7  
                               l3462 07C5                                 l3446 0783  
                               l3438 076F                                 l4158 0D51  
                               l4262 0EE7                                 l4254 0ECA  
                               l4246 0EAC                                 l4238 0E99  
                               l4270 0FAF                                 l4350 0582  
                               l4342 054E                                 l4334 0517  
                               l4326 04ED                                 l4318 04C7  
                               l4430 0628                                 l4422 060C  
                               l4414 05EC                                 l4406 05B7  
                               l4510 0126                                 l4502 00EB  
                               l3464 07C9                                 l3456 07B0  
                               l3448 078C                                 l4248 0EB1  
                               l4256 0EDA                                 l4280 0FF6  
                               l4272 0FB2                                 l4264 0F77  
                               l4344 0552                                 l4336 0528  
                               l4328 04F3                                 l4360 069D  
                               l4352 0671                                 l4440 0654  
                               l4432 062C                                 l4424 0614  
                               l4416 05F2                                 l4408 05E4  
                               l4520 0194                                 l4512 012C  
                               l4504 0116                                 l4600 0414  
                               l3466 07D5                                 l3458 07B2  
                               l4258 0EDE                                 l4274 0FBB  
                               l4266 0F7A                                 l4346 0562  
                               l4338 052C                                 l4290 046C  
                               l4282 043D                                 l4370 06C2  
                               l4362 06A4                                 l4354 0684  
                               l4442 0670                                 l4434 063D  
                               l4426 061C                                 l4418 05F7  
                               l4450 0BB1                                 l4530 025C  
                               l4522 0196                                 l4514 0138  
                               l4506 011C                                 l4602 041F  
                               l3468 07DE                                 l4276 0FEA  
                               l4268 0FA6                                 l4348 0566  
                               l4292 0473                                 l4284 0457  
                               l4380 06F3                                 l4372 06D4  
                               l4364 06A5                                 l4356 068B  
                               l4436 0645                                 l4428 0623  
                               l4452 0BCA                                 l4444 0B95  
                               l4460 0D75                                 l4532 0291  
                               l4524 01D5                                 l4516 013E  
                               l4540 02E3                                 l4508 011F  
                               l4278 0FF3                                 l4294 0474  
                               l4286 045B                                 l4390 071C  
                               l4382 0701                                 l4374 06D8  
                               l4366 06AB                                 l4358 068C  
                               l4438 064D                                 l4446 0B9C  
                               l4454 0AA4                                 l4470 0DB8  
                               l4462 0D7D                                 l4542 02EA  
                               l4534 0297                                 l4526 01DE  
                               l4518 018C                                 l4550 0304  
                               l4296 0478                                 l4288 0461  
                               l4392 0738                                 l4384 070B  
                               l4376 06DF                                 l4368 06B0  
                               l4448 0BAA                                 l4456 0B60  
                               l4464 0D7F                                 l4472 0AC9  
                               l4480 0B1A                                 l4536 02D6  
                               l4528 01E9                                 l4560 0311  
                               l4552 0308                                 l4544 02F6  
                               l4298 047E                                 l4386 070D  
                               l4378 06EB                                 l4394 0583  
                               l4466 0D80                                 l4458 0D6C  
                               l4474 0B00                                 l4538 02DB  
                               l4490 0053                                 l4482 0015  
                               l4570 034C                                 l4562 0326  
                               l4554 0309                                 l4546 02FA  
                               l4388 0715                                 l4396 0596  
                               l4468 0DB2                                 l4476 0B01  
                               l4492 005B                                 l4484 0018  
                               l4580 0390                                 l4572 0366  
                               l4564 032B                                 l4556 030A  
                               l4548 02FF                                 l4398 059D  
                               l4478 0B11                                 l4494 0091  
                               l4486 003D                                 l4590 03D7  
                               l4582 03A7                                 l4574 0372  
                               l4566 0336                                 l4558 030B  
                               l4496 0097                                 l4488 0045  
                               l4592 03DC                                 l4584 03AF  
                               l4576 037E                                 l4568 0341  
                               l4498 00D7                                 l4594 03E7  
                               l4586 03B5                                 l4578 0384  
                               l4596 03EF                                 l4588 03BC  
                               l4598 03FA                                 ?_isr 0070  
                               STR_1 0820                                 STR_2 0818  
                               STR_3 0810                                 STR_4 0826  
                               STR_5 0820                                 STR_6 0810  
                               STR_7 0826                                 u4000 0D41  
                               u4001 0D40                                 u4020 0D60  
                               u4100 0ECA                                 u4021 0D5F  
                               u4005 0D3D                                 u4101 0EC9  
                               u4015 0D52                                 u4120 0EE4  
                               u4200 0496                                 u4121 0EE3  
                               u4201 0495                                 u4210 04AB  
                               u4130 045B                                 u4115 0ECD  
                               u4211 04AA                                 u2700 074C  
                               u4300 04FB                                 u4140 0461  
                               u2701 074B                                 u4301 04FA  
                               u4141 0460                                 u2710 0761  
                               u4070 0E73                                 u4230 04BC  
                               u4150 046B                                 u4071 0E72  
                               u4231 04BB                                 u4151 046A  
                               u2720 077C                                 u4080 0E89  
                               u4320 0511                                 u4240 04C4  
                               u4160 0478                                 u4400 06CD  
                               u2721 077B                                 u4081 0E88  
                               u4321 0510                                 u4241 04C3  
                               u4225 04AD                                 u2730 0783  
                               u4090 0E9F                                 u4330 0517  
                               u4170 047E                                 u2731 0782  
                               u2715 075D                                 u4091 0E9E  
                               u4331 0516                                 u4315 04FF  
                               u4171 047D                                 u3700 07F5  
                               u4340 052C                                 u4260 04DA  
                               u4180 0488                                 u4420 0701  
                               u3701 07F4                                 u4341 052B  
                               u4261 04D9                                 u4181 0487  
                               u4421 0700                                 u4405 06C9  
                               u4501 0604                                 u3710 0DE7  
                               u2750 079F                                 u4270 04E2  
                               u4190 0491                                 u4502 060B  
                               u2751 079E                                 u4351 0547  
                               u4271 04E1                                 u4255 04C8  
                               u4191 0490                                 u4415 06EC  
                               u3800 0E4F                                 u3720 0DEE  
                               u2760 07A7                                 u4360 0552  
                               u4352 054E                                 u4440 071B  
                               u4600 0BB0                                 u3721 0DED  
                               u2761 07A6                                 u2745 078F  
                               u4361 0551                                 u4441 071A  
                               u4425 06FD                                 u4601 0BAF  
                               u3810 0E5C                                 u4290 04F3  
                               u4370 0684                                 u4530 0622  
                               u4450 0596                                 u4610 0D75  
                               u4291 04F2                                 u4435 070E  
                               u4371 0683                                 u4531 0621  
                               u4515 060D                                 u4451 0595  
                               u4611 0D74                                 _PEIE 005E  
                               u3660 0B3C                                 u3740 0E0B  
                               u3820 0C61                                 u2780 07C3  
                               u4380 069D                                 u4540 062C  
                               u4460 05AF                                 u4620 0B2A  
                               u4700 039A                                 u3661 0B3B  
                               u3805 0E4B                                 u3741 0E0A  
                               u3821 0C60                                 u2781 07C2  
                               u4285 04E4                                 u4381 069C  
                               u4541 062B                                 u4525 0615  
                               u4461 05AE                                 u4621 0B29  
                               u3670 0B4D                                 u2790 07C9  
                               u3910 0CBE                                 u4390 06BB  
                               u4470 05C7                                 u4630 0045  
                               u4710 03AF                                 u3671 0B4C  
                               u3735 0DFD                                 u3831 0C6A  
                               u2775 07B4                                 u3911 0CBD  
                               u4551 0635                                 u4631 0044  
                               u4711 03AE                                 u3680 0B5E  
                               u3760 0E29                                 u3832 0C71  
                               u3920 0CD2                                 u4552 063C  
                               u4480 05D9                                 u4640 00DF  
                               u4720 03B5                                 u3681 0B5D  
                               u3761 0E28                                 u3833 0C78  
                               u3921 0CD1                                 u3905 0CAE  
                               u4641 00DE                                 u4721 03B4  
                               u3690 07E7                                 u4490 05FB  
                               u4650 0125                                 u3691 07E6  
                               u3755 0E1C                                 u4395 06B7  
                               u4491 05FA                                 u4475 05C3  
                               u4651 0124                                 u3780 0E3A  
                               u3860 0C93                                 u3940 0CF0  
                               u4580 0653                                 u4660 012C  
                               u3685 0B5A                                 u3781 0E39  
                               u3861 0C92                                 u3845 0C7B  
                               u3941 0CEF                                 u3925 0CCE  
                               u4581 0652                                 u4565 063E  
                               u4485 05D5                                 u3790 0E3E  
                               u3950 0AB4                                 u4670 01E8  
                               u3791 0E3D                                 u3775 0E2E  
                               u3855 0C83                                 u3935 0CE2  
                               u3951 0AB3                                 u4575 0646  
                               u4671 01E7                                 u3960 0D0E  
                               u4680 02E1                                 u3961 0D0D  
                               u4681 02E0                                 u3890 0CA8  
                               u4690 0384                                 u3891 0CA7  
                               u4595 0B9D                                 u4691 0383  
                               u3980 0D24                                 u3981 0D23  
                               u3975 0D14                                 u3995 0D28  
                               _TMR0 0001                                 _WREN 0C62  
                               _main 02F6                         ___ftpack@arg 0020  
                       ___ftpack@exp 0023                 lcd_putnumf@frac_part 00B0  
                               btemp 007E                          lcd_puts@str 0028  
                               start 0012                    ___bmul@multiplier 0023  
                       ___ftmul@cntr 004D                         ___ftmul@sign 004E  
                       ___fttol@exp1 0035                         ___fttol@lval 0031  
                              ??_isr 0070                                ?_main 0070  
                              _EEADR 010D                      __end_of___ftadd 0583  
                              _CARRY 0018                      __end_of___ftdiv 0739  
                    __end_of___ftneg 0AB9                      __end_of___lldiv 0D6C  
                    __end_of___ftmul 0671                      __end_of___llmod 0CFC  
                    __end_of___fttol 07DF                                i1l724 0C47  
                              i1l725 0C46                                i1l726 0C47  
                              _TABLE 0190                         main@key_char 00D9  
                              _PORTB 0006                                _TRISB 0086  
                              _TRISD 0088                                _TRISE 0089  
                ___lmul@multiplicand 0024                         ___lltoft@exp 003E  
                   keyboard_scan@col 002D                     keyboard_scan@row 002F  
                      ___ftpack@sign 0024                                pclath 000A  
                              status 0003                                wtemp0 007E  
                       lcd_putnumf@i 00C3                         lcd_putnumf@j 00B4  
                       __end_of_main 043D                               ??_main 0061  
                      ___fttol@sign1 0030                       lcd_command@cmd 0027  
                   ___llmod@dividend 0024                               _EEDATA 010C  
                             _EECON1 018C                               _EECON2 018D  
                   __end_of___ftpack 0E5E                        main@map_index 00D6  
                   __end_of___lltoft 0BCB                               i1l3340 0C0F  
                             i1l3350 0C3D                               i1l3342 0C10  
                             i1l3344 0C11                               i1l3346 0C1F  
                             i1l3338 0C0B                               i1l3348 0C31  
                             u245_20 0C0F                               u245_21 0C0E  
                             u246_20 0C31                               u246_21 0C30  
                             u246_25 0C2D                               _TMR0IE 005D  
                             _TMR0IF 005A                        main@key_index 00D8  
                   __end_of_delay_ms 0B60                     __end_of_lcd_data 0F74  
                   __end_of_lcd_init 0B95                 __size_of_lcd_command 008C  
                   __end_of_lcd_putc 0AAB                               ___bmul 07DF  
                   __end_of_lcd_puts 0B2C                               ___lmul 0C52  
                          ??___ftadd 0055                            ??___ftdiv 003C  
                          ??___ftneg 0039                            ??___lldiv 0028  
                          ??___ftmul 0045                            ??___llmod 0028  
                          ??___fttol 002C               __size_of_keyboard_scan 008A  
                             _preres 0079                 __size_of_lcd_putnumf 02E1  
              ___ftmul@f3_as_product 004A                         __pdataCOMMON 0079  
              lcd_putnumf@multiplier 00B5                               saved_w 007E  
                         ___ftadd@f1 004F                           ___ftadd@f2 0052  
       set_pwm_frequency@half_period 004C                           ___ftdiv@f1 0039  
                         ___ftdiv@f2 0036                           ___ftdiv@f3 0041  
                         ___ftneg@f1 0036                  ___bmul@multiplicand 0020  
                         ___ftmul@f1 003F                           ___ftmul@f2 0042  
                         ___fttol@f1 0028                       __pcstackCOMMON 0070  
                       __pidataBANK0 07F9                         __pidataBANK1 0ADB  
                       __pidataBANK3 0AB9                           ___lltoft@c 0039  
              keyboard_scan@row_pins 0028                   __size_of_lcd_clear 0012  
                      _keyboard_scan 0E5E                           __pbssBANK0 0065  
                         __pbssBANK1 00EC  set_pwm_frequency@interrupt_interval 004F  
                         __pmaintext 02F6                              ?___bmul 0020  
                            ?___lmul 0020                           __pintentry 0004  
                     ___lmul@product 0029                            ?___ftpack 0020  
                          ?___lltoft 0039                            ?_delay_ms 0020  
                     ?_keyboard_scan 0070                            ?_lcd_data 0070  
                          ?_lcd_init 0070                            ?_lcd_putc 0070  
                          ?_lcd_puts 0028                   keyboard_scan@F1153 0069  
                  __end_of_lcd_clear 0ADB                      __size_of___bmul 001A  
                    __size_of___lmul 004C                              ___ftadd 043D  
                            ___ftdiv 0671                              ___ftneg 0AAB  
                            ___lldiv 0CFC                              ___ftmul 0583  
                            ___llmod 0C9E                              ___fttol 0739  
                         ??___ftpack 0025                           ??___lltoft 003D  
          lcd_putnumf@decimal_places 005F                         __size_of_isr 0047  
                         ??_delay_ms 0022                           ??_lcd_data 0026  
                         ??_lcd_init 0028                           ??_lcd_putc 0028  
                         ??_lcd_puts 002A                           delay_ms@ms 0020  
               end_of_initialization 0C07                              init_ram 0AF1  
                    ___lldiv@divisor 0020                      ___lldiv@counter 002D  
                     lcd_putnumf@end 00BE                       lcd_putnumf@num 005C  
                          _PORTDbits 0008                      ??_keyboard_scan 0026  
                        ___ftdiv@exp 0044                        ??_lcd_command 0026  
                        ___ftmul@exp 0049                  lcd_putnumf@int_part 00BF  
                     __end_of___bmul 07F9                        ??_lcd_putnumf 0060  
                     __end_of___lmul 0C9E                        __pidataCOMMON 07FD  
            set_pwm_frequency@period 0049                  start_initialization 0BCB  
                        __end_of_isr 0C52                    _set_pwm_frequency 0D6C  
                 ?_set_pwm_frequency 0046                      ___llmod@divisor 0020  
                    ___llmod@counter 0029                  ??_set_pwm_frequency 0049  
                           ??___bmul 0021                             ??___lmul 0028  
                __end_of_lcd_command 1000                          __pdataBANK0 0069  
                        __pdataBANK1 00DA                          __pdataBANK3 0190  
               keyboard_scan@col_val 002E                    __size_of___ftpack 007D  
                  __size_of___lltoft 0036                  __end_of_lcd_putnumf 02F6  
                        __pbssCOMMON 0075                        __pcstackBANK0 0020  
                      __pcstackBANK1 00A0            __end_of_set_pwm_frequency 0DE1  
              set_pwm_frequency@freq 0046                    __size_of_delay_ms 0034  
                  __size_of_lcd_data 008C                    __size_of_lcd_init 0035  
                  __size_of_lcd_putc 000A                    __size_of_lcd_puts 002C  
                           ?___ftadd 004F                            __ptext770 0B00  
                          __ptext771 0AC9                            __ptext780 0E5E  
                          __ptext772 0D6C                            __ptext781 0EE8  
                          __ptext773 0B60                            __ptext790 0C0B  
                          __ptext782 0CFC                            __ptext774 0AA1  
                          __ptext791 0000                            __ptext783 0AAB  
                          __ptext775 0B95                            __ptext784 0C9E  
                          __ptext776 0583                            __ptext785 0739  
                          __ptext777 0671                            __ptext769 0015  
                          __ptext786 0C52                            __ptext778 043D  
                          __ptext787 0DE1                            __ptext779 0F74  
                          __ptext788 07DF                            __ptext789 0B2C  
                           ?___ftdiv 0036                             ?___ftneg 0036  
                           ?___lldiv 0020                             ?___ftmul 003F  
                           ?___llmod 0020                             ?___fttol 0028  
                          _lcd_clear 0AC9                            __pstrings 0800  
                  interrupt_function 0004                            delay_ms@i 0022  
                          delay_ms@j 0024                          _lcd_command 0F74  
                          main@F1117 00DA                          _lcd_putnumf 0015  
                         ?_lcd_clear 0070                          __stringbase 080F  
                          lcd_putc@c 0028           __size_of_set_pwm_frequency 0075  
                  ___lmul@multiplier 0020                            init_fetch 0AED  
                   __size_of___ftadd 0146                     __size_of___ftdiv 00C8  
                   __size_of___ftneg 000E                     __size_of___lldiv 0070  
                   __size_of___ftmul 00EE                     __size_of___llmod 005E  
                   __size_of___fttol 00A6                             ___ftpack 0DE1  
                           ___lltoft 0B95                  keyboard_scan@result 002C  
                           _delay_ms 0B2C                __end_of_keyboard_scan 0EE8  
                           _lcd_data 0EE8                             _lcd_init 0B60  
                           _lcd_putc 0AA1                             _lcd_puts 0B00  
                       _target_count 0065                        __size_of_main 0147  
                        ??_lcd_clear 0028                    lcd_putnumf@buffer 00A0  
                           intlevel1 0000                     ___lldiv@dividend 0024  
                          stringcode 080A                     lcd_putnumf@start 00BD  
                         _OPTION_REG 0081                     ___lldiv@quotient 0029  
                  main@frequency_map 00C4                             stringdir 080A  
                           stringtab 0800                          _timer_count 0075  
                    lcd_putnumf@frac 00B9                      lcd_putnumf@temp 00B3  
                       ?_lcd_command 0070  
