

HI-TECH Software PIC LITE Macro Assembler V9.82 build 9453 
                                                                                               Tue Apr 29 19:56:14 2025

HI-TECH Software Omniscient Code Generator (Lite mode) build 9453
     1  0000                     opt subtitle "HI-TECH Software Omniscient Code Generator (Lite mode) build 9453"
     2                           
     3                           opt pagewidth 120
     4                           
     5                           	opt lm
     6                           
     7                           	processor	16F877A
     8                           clrc	macro
     9                           	bcf	3,0
    10  0000                     	endm
    11                           clrz	macro
    12                           	bcf	3,2
    13  0000                     	endm
    14                           setc	macro
    15                           	bsf	3,0
    16  0000                     	endm
    17                           setz	macro
    18                           	bsf	3,2
    19  0000                     	endm
    20                           skipc	macro
    21                           	btfss	3,0
    22  0000                     	endm
    23                           skipz	macro
    24                           	btfss	3,2
    25  0000                     	endm
    26                           skipnc	macro
    27                           	btfsc	3,0
    28  0000                     	endm
    29                           skipnz	macro
    30                           	btfsc	3,2
    31  0000                     	endm
    32  0000                     indf	equ	0
    33  0000                     indf0	equ	0
    34  0002                     pc	equ	2
    35  0002                     pcl	equ	2
    36  0003                     status	equ	3
    37  0004                     fsr	equ	4
    38  0004                     fsr0	equ	4
    39  0001                     c	equ	1
    40  0000                     z	equ	0
    41  000A                     pclath	equ	10
    42                           # 2 "D:\OneDrive - asd\WeiJi\Mplab_workspace\sy4\Untitled.c"
    43                           	psect config,class=CONFIG,delta=2 ;#
    44                           # 2 "D:\OneDrive - asd\WeiJi\Mplab_workspace\sy4\Untitled.c"
    45  2007  FF29               	dw 0xFF29 ;#
    46                           # 3 "D:\OneDrive - asd\WeiJi\Mplab_workspace\sy4\Untitled.c"
    47                           	psect eeprom_data,class=EEDATA,delta=2,space=2 ;#
    48                           # 3 "D:\OneDrive - asd\WeiJi\Mplab_workspace\sy4\Untitled.c"
    49  0000  00B0 0027 0009     	db	0xB0,0x27,9,0,0,0,0,0 ;#
              0000 0000 0000     
              0000 0000          
    50                           	FNCALL	_main,_DELAY
    51                           	FNCALL	_main,_ENABLE
    52                           	FNCALL	_main,_eeprom_read
    53                           	FNCALL	_main,_div
    54                           	FNCALL	_main,_ENABLE1
    55                           	FNCALL	_main,_eeprom_write
    56                           	FNCALL	_main,_speed_calculate
    57                           	FNCALL	_speed_calculate,___awdiv
    58                           	FNCALL	_speed_calculate,___bmul
    59                           	FNCALL	_div,___lldiv
    60                           	FNCALL	_div,___lmul
    61                           	FNCALL	_div,___aldiv
    62                           	FNCALL	_div,___wmul
    63                           	FNCALL	_div,___awdiv
    64                           	FNCALL	_div,___bmul
    65                           	FNCALL	_ENABLE1,_DELAY
    66                           	FNCALL	_ENABLE,_DELAY
    67                           	FNROOT	_main
    68                           	FNCALL	intlevel1,_int_serve
    69                           	global	intlevel1
    70                           	FNROOT	intlevel1
    71                           	global	_table
    72                           psect	idataBANK0,class=CODE,space=0,delta=2
    73                           global __pidataBANK0
    74  0643                     __pidataBANK0:
    75                           	file	"D:\OneDrive - asd\WeiJi\Mplab_workspace\sy4\Untitled.c"
    76                           	line	6
    77                           
    78                           ;initializer for _table
    79  0643  3430               	retlw	030h
    80  0644  3431               	retlw	031h
    81  0645  3432               	retlw	032h
    82  0646  3433               	retlw	033h
    83  0647  3434               	retlw	034h
    84  0648  3435               	retlw	035h
    85  0649  3436               	retlw	036h
    86  064A  3437               	retlw	037h
    87  064B  3438               	retlw	038h
    88  064C  3439               	retlw	039h
    89                           	global	_li_cheng
    90                           	global	_count_temp
    91                           	global	_n
    92                           	global	_b
    93                           	global	_c
    94                           	global	_d1
    95                           	global	_e
    96                           	global	_e1
    97                           	global	_f
    98                           	global	_f1
    99                           	global	_m
   100                           	global	_tmr01
   101                           	global	_tmr02
   102                           	global	_t_speed
   103                           	global	_a
   104                           	global	_d
   105                           	global	_speed
   106                           	global	_PORTD
   107  0008                     _PORTD	set	8
   108                           	global	_TMR0
   109  0001                     _TMR0	set	1
   110                           	global	_CARRY
   111  0018                     _CARRY	set	24
   112                           	global	_GIE
   113  005F                     _GIE	set	95
   114                           	global	_INTE
   115  005C                     _INTE	set	92
   116                           	global	_INTF
   117  0059                     _INTF	set	89
   118                           	global	_RA3
   119  002B                     _RA3	set	43
   120                           	global	_RA4
   121  002C                     _RA4	set	44
   122                           	global	_RA5
   123  002D                     _RA5	set	45
   124                           	global	_RE0
   125  0048                     _RE0	set	72
   126                           	global	_T0IE
   127  005D                     _T0IE	set	93
   128                           	global	_T0IF
   129  005A                     _T0IF	set	90
   130                           	global	_OPTION_REG
   131  0081                     _OPTION_REG	set	129
   132                           	global	_TRISA
   133  0085                     _TRISA	set	133
   134                           	global	_TRISD
   135  0088                     _TRISD	set	136
   136                           	global	_TRISA0
   137  0428                     _TRISA0	set	1064
   138                           	global	_TRISB0
   139  0430                     _TRISB0	set	1072
   140                           	global	_TRISE0
   141  0448                     _TRISE0	set	1096
   142                           	global	_EEADR
   143  010D                     _EEADR	set	269
   144                           	global	_EEDATA
   145  010C                     _EEDATA	set	268
   146                           	global	_EECON1
   147  018C                     _EECON1	set	396
   148                           	global	_EECON2
   149  018D                     _EECON2	set	397
   150                           	global	_RD
   151  0C60                     _RD	set	3168
   152                           	global	_WR
   153  0C61                     _WR	set	3169
   154                           	global	_WREN
   155  0C62                     _WREN	set	3170
   156                           	file	"sy4.as"
   157                           	line	#
   158                           psect cinit,class=CODE,delta=2
   159                           global start_initialization
   160  05C2                     start_initialization:
   161                           
   162                           psect	bssCOMMON,class=COMMON,space=1
   163                           global __pbssCOMMON
   164  007A                     __pbssCOMMON:
   165  007A                     _tmr01:
   166  007A                            ds      1
   167                           
   168  007B                     _tmr02:
   169  007B                            ds      1
   170                           
   171                           psect	bssBANK0,class=BANK0,space=1
   172                           global __pbssBANK0
   173  0043                     __pbssBANK0:
   174  0043                     _li_cheng:
   175  0043                            ds      4
   176                           
   177  0047                     _count_temp:
   178  0047                            ds      2
   179                           
   180  0049                     _n:
   181  0049                            ds      2
   182                           
   183  004B                     _b:
   184  004B                            ds      1
   185                           
   186  004C                     _c:
   187  004C                            ds      1
   188                           
   189  004D                     _d1:
   190  004D                            ds      1
   191                           
   192  004E                     _e:
   193  004E                            ds      1
   194                           
   195  004F                     _e1:
   196  004F                            ds      1
   197                           
   198  0050                     _f:
   199  0050                            ds      1
   200                           
   201  0051                     _f1:
   202  0051                            ds      1
   203                           
   204  0052                     _m:
   205  0052                            ds      1
   206                           
   207  0053                     _t_speed:
   208  0053                            ds      2
   209                           
   210  0055                     _a:
   211  0055                            ds      1
   212                           
   213  0056                     _d:
   214  0056                            ds      1
   215                           
   216  0057                     _speed:
   217  0057                            ds      1
   218                           
   219                           psect	dataBANK0,class=BANK0,space=1
   220                           global __pdataBANK0
   221  0058                     __pdataBANK0:
   222                           	file	"D:\OneDrive - asd\WeiJi\Mplab_workspace\sy4\Untitled.c"
   223  0058                     _table:
   224  0058                            ds      10
   225                           
   226                           psect clrtext,class=CODE,delta=2
   227                           global clear_ram
   228                           ;	Called with FSR containing the base address, and
   229                           ;	W with the last address+1
   230  064D                     clear_ram:
   231  064D  0064               	clrwdt			;clear the watchdog before getting into this loop
   232  064E                     clrloop:
   233  064E  0180               	clrf	indf		;clear RAM location pointed to by FSR
   234  064F  0A84               	incf	fsr,f		;increment pointer
   235  0650  0604               	xorwf	fsr,w		;XOR with final address
   236  0651  1903               	btfsc	status,2	;have we reached the end yet?
   237  0652  3400               	retlw	0		;all done for this memory range, return
   238  0653  0604               	xorwf	fsr,w		;XOR again to restore value
   239  0654  2E4E               	goto	clrloop		;do the next byte
   240                           
   241                           ; Clear objects allocated to COMMON
   242                           psect cinit,class=CODE,delta=2
   243  05C2  01FA               	clrf	((__pbssCOMMON)+0)&07Fh
   244  05C3  01FB               	clrf	((__pbssCOMMON)+1)&07Fh
   245                           ; Clear objects allocated to BANK0
   246                           psect cinit,class=CODE,delta=2
   247  05C4  1383               	bcf	status, 7	;select IRP bank0
   248  05C5  3043               	movlw	low(__pbssBANK0)
   249  05C6  0084               	movwf	fsr
   250  05C7  3058               	movlw	low((__pbssBANK0)+015h)
   251  05C8  120A  118A  264D   	fcall	clear_ram
              120A  118A         
   252                           global btemp
   253                           psect inittext,class=CODE,delta=2
   254                           global init_fetch,btemp
   255                           ;	Called with low address in FSR and high address in W
   256  0614                     init_fetch:
   257  0614  087E               	movf btemp,w
   258  0615  008A               	movwf pclath
   259  0616  087F               	movf btemp+1,w
   260  0617  0082               	movwf pc
   261                           global init_ram
   262                           ;Called with:
   263                           ;	high address of idata address in btemp 
   264                           ;	low address of idata address in btemp+1 
   265                           ;	low address of data in FSR
   266                           ;	high address + 1 of data in btemp-1
   267  0618                     init_ram:
   268  0618  120A  118A  2614   	fcall init_fetch
              120A  118A         
   269  061D  0080               	movwf indf,f
   270  061E  0A84               	incf fsr,f
   271  061F  0804               	movf fsr,w
   272  0620  067D               	xorwf btemp-1,w
   273  0621  1903               	btfsc status,2
   274  0622  3400               	retlw 0
   275  0623  0AFF               	incf btemp+1,f
   276  0624  1903               	btfsc status,2
   277  0625  0AFE               	incf btemp,f
   278  0626  2E18               	goto init_ram
   279                           ; Initialize objects allocated to BANK0
   280                           psect cinit,class=CODE,delta=2
   281                           global init_ram, __pidataBANK0
   282  05CD  3062               	movlw low(__pdataBANK0+10)
   283  05CE  00FD               	movwf btemp-1,f
   284  05CF  3006               	movlw high(__pidataBANK0)
   285  05D0  00FE               	movwf btemp,f
   286  05D1  3043               	movlw low(__pidataBANK0)
   287  05D2  00FF               	movwf btemp+1,f
   288  05D3  3058               	movlw low(__pdataBANK0)
   289  05D4  0084               	movwf fsr,f
   290  05D5  120A  118A  2618   	fcall init_ram
              120A  118A         
   291                           psect cinit,class=CODE,delta=2
   292                           global end_of_initialization
   293                           
   294                           ;End of C runtime variable initialization code
   295                           
   296  05DA                     end_of_initialization:
   297  05DA  0183               clrf status
   298  05DB  120A  118A  2941   ljmp _main	;jump to C main() function
   299                           psect	cstackCOMMON,class=COMMON,space=1
   300                           global __pcstackCOMMON
   301  0070                     __pcstackCOMMON:
   302                           	global	?_DELAY
   303  0070                     ?_DELAY:	; 0 bytes @ 0x0
   304                           	global	?_ENABLE
   305  0070                     ?_ENABLE:	; 0 bytes @ 0x0
   306                           	global	?_ENABLE1
   307  0070                     ?_ENABLE1:	; 0 bytes @ 0x0
   308                           	global	?_div
   309  0070                     ?_div:	; 0 bytes @ 0x0
   310                           	global	?_speed_calculate
   311  0070                     ?_speed_calculate:	; 0 bytes @ 0x0
   312                           	global	?_int_serve
   313  0070                     ?_int_serve:	; 0 bytes @ 0x0
   314                           	global	??_int_serve
   315  0070                     ??_int_serve:	; 0 bytes @ 0x0
   316                           	global	?_eeprom_read
   317  0070                     ?_eeprom_read:	; 1 bytes @ 0x0
   318                           	global	?_main
   319  0070                     ?_main:	; 2 bytes @ 0x0
   320  0070                     	ds	10
   321                           psect	cstackBANK0,class=BANK0,space=1
   322                           global __pcstackBANK0
   323  0020                     __pcstackBANK0:
   324                           	global	??_eeprom_read
   325  0020                     ??_eeprom_read:	; 0 bytes @ 0x0
   326                           	global	??_DELAY
   327  0020                     ??_DELAY:	; 0 bytes @ 0x0
   328                           	global	?_eeprom_write
   329  0020                     ?_eeprom_write:	; 1 bytes @ 0x0
   330                           	global	?___bmul
   331  0020                     ?___bmul:	; 1 bytes @ 0x0
   332                           	global	?___wmul
   333  0020                     ?___wmul:	; 2 bytes @ 0x0
   334                           	global	?___awdiv
   335  0020                     ?___awdiv:	; 2 bytes @ 0x0
   336                           	global	?___lmul
   337  0020                     ?___lmul:	; 4 bytes @ 0x0
   338                           	global	?___lldiv
   339  0020                     ?___lldiv:	; 4 bytes @ 0x0
   340                           	global	?___aldiv
   341  0020                     ?___aldiv:	; 4 bytes @ 0x0
   342                           	global	eeprom_write@value
   343  0020                     eeprom_write@value:	; 1 bytes @ 0x0
   344                           	global	___bmul@multiplicand
   345  0020                     ___bmul@multiplicand:	; 1 bytes @ 0x0
   346                           	global	DELAY@i
   347  0020                     DELAY@i:	; 2 bytes @ 0x0
   348                           	global	___wmul@multiplier
   349  0020                     ___wmul@multiplier:	; 2 bytes @ 0x0
   350                           	global	___awdiv@divisor
   351  0020                     ___awdiv@divisor:	; 2 bytes @ 0x0
   352                           	global	___lmul@multiplier
   353  0020                     ___lmul@multiplier:	; 4 bytes @ 0x0
   354                           	global	___lldiv@divisor
   355  0020                     ___lldiv@divisor:	; 4 bytes @ 0x0
   356                           	global	___aldiv@divisor
   357  0020                     ___aldiv@divisor:	; 4 bytes @ 0x0
   358  0020                     	ds	1
   359                           	global	??_eeprom_write
   360  0021                     ??_eeprom_write:	; 0 bytes @ 0x1
   361                           	global	??___bmul
   362  0021                     ??___bmul:	; 0 bytes @ 0x1
   363                           	global	eeprom_read@addr
   364  0021                     eeprom_read@addr:	; 1 bytes @ 0x1
   365  0021                     	ds	1
   366                           	global	??_ENABLE
   367  0022                     ??_ENABLE:	; 0 bytes @ 0x2
   368                           	global	??_ENABLE1
   369  0022                     ??_ENABLE1:	; 0 bytes @ 0x2
   370                           	global	eeprom_write@addr
   371  0022                     eeprom_write@addr:	; 1 bytes @ 0x2
   372                           	global	___bmul@product
   373  0022                     ___bmul@product:	; 1 bytes @ 0x2
   374                           	global	___wmul@multiplicand
   375  0022                     ___wmul@multiplicand:	; 2 bytes @ 0x2
   376                           	global	___awdiv@dividend
   377  0022                     ___awdiv@dividend:	; 2 bytes @ 0x2
   378  0022                     	ds	1
   379                           	global	___bmul@multiplier
   380  0023                     ___bmul@multiplier:	; 1 bytes @ 0x3
   381  0023                     	ds	1
   382                           	global	??___wmul
   383  0024                     ??___wmul:	; 0 bytes @ 0x4
   384                           	global	??___awdiv
   385  0024                     ??___awdiv:	; 0 bytes @ 0x4
   386                           	global	___wmul@product
   387  0024                     ___wmul@product:	; 2 bytes @ 0x4
   388                           	global	___lmul@multiplicand
   389  0024                     ___lmul@multiplicand:	; 4 bytes @ 0x4
   390                           	global	___lldiv@dividend
   391  0024                     ___lldiv@dividend:	; 4 bytes @ 0x4
   392                           	global	___aldiv@dividend
   393  0024                     ___aldiv@dividend:	; 4 bytes @ 0x4
   394  0024                     	ds	1
   395                           	global	___awdiv@counter
   396  0025                     ___awdiv@counter:	; 1 bytes @ 0x5
   397  0025                     	ds	1
   398                           	global	___awdiv@sign
   399  0026                     ___awdiv@sign:	; 1 bytes @ 0x6
   400  0026                     	ds	1
   401                           	global	___awdiv@quotient
   402  0027                     ___awdiv@quotient:	; 2 bytes @ 0x7
   403  0027                     	ds	1
   404                           	global	??___lmul
   405  0028                     ??___lmul:	; 0 bytes @ 0x8
   406                           	global	??___lldiv
   407  0028                     ??___lldiv:	; 0 bytes @ 0x8
   408                           	global	??___aldiv
   409  0028                     ??___aldiv:	; 0 bytes @ 0x8
   410  0028                     	ds	1
   411                           	global	??_speed_calculate
   412  0029                     ??_speed_calculate:	; 0 bytes @ 0x9
   413                           	global	___aldiv@counter
   414  0029                     ___aldiv@counter:	; 1 bytes @ 0x9
   415                           	global	___lmul@product
   416  0029                     ___lmul@product:	; 4 bytes @ 0x9
   417                           	global	___lldiv@quotient
   418  0029                     ___lldiv@quotient:	; 4 bytes @ 0x9
   419  0029                     	ds	1
   420                           	global	___aldiv@sign
   421  002A                     ___aldiv@sign:	; 1 bytes @ 0xA
   422  002A                     	ds	1
   423                           	global	___aldiv@quotient
   424  002B                     ___aldiv@quotient:	; 4 bytes @ 0xB
   425  002B                     	ds	1
   426                           	global	speed_calculate@z
   427  002C                     speed_calculate@z:	; 1 bytes @ 0xC
   428  002C                     	ds	1
   429                           	global	___lldiv@counter
   430  002D                     ___lldiv@counter:	; 1 bytes @ 0xD
   431  002D                     	ds	2
   432                           	global	??_div
   433  002F                     ??_div:	; 0 bytes @ 0xF
   434  002F                     	ds	12
   435                           	global	div@x
   436  003B                     div@x:	; 4 bytes @ 0x1B
   437  003B                     	ds	4
   438                           	global	div@z
   439  003F                     div@z:	; 1 bytes @ 0x1F
   440  003F                     	ds	1
   441                           	global	div@y
   442  0040                     div@y:	; 2 bytes @ 0x20
   443  0040                     	ds	2
   444                           	global	??_main
   445  0042                     ??_main:	; 0 bytes @ 0x22
   446  0042                     	ds	1
   447 ;;Data sizes: Strings 0, constant 0, data 10, bss 23, persistent 0 stack 0
   448 ;;Auto spaces:   Size  Autos    Used
   449 ;; COMMON          14     10      12
   450 ;; BANK0           80     35      66
   451 ;; BANK1           80      0       0
   452 ;; BANK3           96      0       0
   453 ;; BANK2           96      0       0
   454                           
   455 ;;
   456 ;; Pointer list with targets:
   457                           
   458 ;; ?___awdiv	int  size(1) Largest target is 0
   459 ;;
   460 ;; ?___wmul	unsigned int  size(1) Largest target is 0
   461 ;;
   462 ;; ?___aldiv	long  size(1) Largest target is 0
   463 ;;
   464 ;; ?___lmul	unsigned long  size(1) Largest target is 0
   465 ;;
   466 ;; ?___lldiv	unsigned long  size(1) Largest target is 0
   467 ;;
   468                           
   469                           
   470 ;;
   471 ;; Critical Paths under _main in COMMON
   472 ;;
   473 ;;   None.
   474 ;;
   475 ;; Critical Paths under _int_serve in COMMON
   476 ;;
   477 ;;   None.
   478 ;;
   479 ;; Critical Paths under _main in BANK0
   480 ;;
   481 ;;   _main->_div
   482 ;;   _speed_calculate->___awdiv
   483 ;;   _div->___aldiv
   484 ;;   _ENABLE1->_DELAY
   485 ;;   _ENABLE->_DELAY
   486 ;;
   487 ;; Critical Paths under _int_serve in BANK0
   488 ;;
   489 ;;   None.
   490 ;;
   491 ;; Critical Paths under _main in BANK1
   492 ;;
   493 ;;   None.
   494 ;;
   495 ;; Critical Paths under _int_serve in BANK1
   496 ;;
   497 ;;   None.
   498 ;;
   499 ;; Critical Paths under _main in BANK3
   500 ;;
   501 ;;   None.
   502 ;;
   503 ;; Critical Paths under _int_serve in BANK3
   504 ;;
   505 ;;   None.
   506 ;;
   507 ;; Critical Paths under _main in BANK2
   508 ;;
   509 ;;   None.
   510 ;;
   511 ;; Critical Paths under _int_serve in BANK2
   512 ;;
   513 ;;   None.
   514                           
   515 ;;
   516 ;;Main: autosize = 0, tempsize = 1, incstack = 0, save=0
   517 ;;
   518                           
   519 ;;
   520 ;;Call Graph Tables:
   521 ;;
   522 ;; ---------------------------------------------------------------------------------
   523 ;; (Depth) Function   	        Calls       Base Space   Used Autos Params    Refs
   524 ;; ---------------------------------------------------------------------------------
   525 ;; (0) _main                                                 1     1      0    1865
   526 ;;                                             34 BANK0      1     1      0
   527 ;;                              _DELAY
   528 ;;                             _ENABLE
   529 ;;                        _eeprom_read
   530 ;;                                _div
   531 ;;                            _ENABLE1
   532 ;;                       _eeprom_write
   533 ;;                    _speed_calculate
   534 ;; ---------------------------------------------------------------------------------
   535 ;; (1) _speed_calculate                                      4     4      0     437
   536 ;;                                              9 BANK0      4     4      0
   537 ;;                            ___awdiv
   538 ;;                             ___bmul
   539 ;; ---------------------------------------------------------------------------------
   540 ;; (1) _div                                                 19    19      0    1218
   541 ;;                                             15 BANK0     19    19      0
   542 ;;                            ___lldiv
   543 ;;                             ___lmul
   544 ;;                            ___aldiv
   545 ;;                             ___wmul
   546 ;;                            ___awdiv
   547 ;;                             ___bmul
   548 ;; ---------------------------------------------------------------------------------
   549 ;; (1) _ENABLE1                                              0     0      0      46
   550 ;;                              _DELAY
   551 ;; ---------------------------------------------------------------------------------
   552 ;; (1) _ENABLE                                               0     0      0      46
   553 ;;                              _DELAY
   554 ;; ---------------------------------------------------------------------------------
   555 ;; (2) ___aldiv                                             15     7      8     300
   556 ;;                                              0 BANK0     15     7      8
   557 ;; ---------------------------------------------------------------------------------
   558 ;; (2) ___lldiv                                             14     6      8     162
   559 ;;                                              0 BANK0     14     6      8
   560 ;; ---------------------------------------------------------------------------------
   561 ;; (2) ___awdiv                                              9     5      4     300
   562 ;;                                              0 BANK0      9     5      4
   563 ;; ---------------------------------------------------------------------------------
   564 ;; (2) ___lmul                                              13     5      8      92
   565 ;;                                              0 BANK0     13     5      8
   566 ;; ---------------------------------------------------------------------------------
   567 ;; (2) ___wmul                                               6     2      4      92
   568 ;;                                              0 BANK0      6     2      4
   569 ;; ---------------------------------------------------------------------------------
   570 ;; (2) ___bmul                                               4     3      1      92
   571 ;;                                              0 BANK0      4     3      1
   572 ;; ---------------------------------------------------------------------------------
   573 ;; (1) _eeprom_write                                         3     2      1      50
   574 ;;                                              0 BANK0      3     2      1
   575 ;; ---------------------------------------------------------------------------------
   576 ;; (1) _eeprom_read                                          2     2      0      22
   577 ;;                                              0 BANK0      2     2      0
   578 ;; ---------------------------------------------------------------------------------
   579 ;; (2) _DELAY                                                2     2      0      46
   580 ;;                                              0 BANK0      2     2      0
   581 ;; ---------------------------------------------------------------------------------
   582 ;; Estimated maximum stack depth 2
   583 ;; ---------------------------------------------------------------------------------
   584 ;; (Depth) Function   	        Calls       Base Space   Used Autos Params    Refs
   585 ;; ---------------------------------------------------------------------------------
   586 ;; (3) _int_serve                                           10    10      0       0
   587 ;;                                              0 COMMON    10    10      0
   588 ;; ---------------------------------------------------------------------------------
   589 ;; Estimated maximum stack depth 3
   590 ;; ---------------------------------------------------------------------------------
   591                           
   592 ;; Call Graph Graphs:
   593                           
   594 ;; _main (ROOT)
   595 ;;   _DELAY
   596 ;;   _ENABLE
   597 ;;     _DELAY
   598 ;;   _eeprom_read
   599 ;;   _div
   600 ;;     ___lldiv
   601 ;;     ___lmul
   602 ;;     ___aldiv
   603 ;;     ___wmul
   604 ;;     ___awdiv
   605 ;;     ___bmul
   606 ;;   _ENABLE1
   607 ;;     _DELAY
   608 ;;   _eeprom_write
   609 ;;   _speed_calculate
   610 ;;     ___awdiv
   611 ;;     ___bmul
   612 ;;
   613 ;; _int_serve (ROOT)
   614 ;;
   615                           
   616 ;; Address spaces:
   617                           
   618 ;;Name               Size   Autos  Total    Cost      Usage
   619 ;;BANK3               60      0       0       9        0.0%
   620 ;;BITBANK3            60      0       0       8        0.0%
   621 ;;SFR3                 0      0       0       4        0.0%
   622 ;;BITSFR3              0      0       0       4        0.0%
   623 ;;BANK2               60      0       0      11        0.0%
   624 ;;BITBANK2            60      0       0      10        0.0%
   625 ;;SFR2                 0      0       0       5        0.0%
   626 ;;BITSFR2              0      0       0       5        0.0%
   627 ;;SFR1                 0      0       0       2        0.0%
   628 ;;BITSFR1              0      0       0       2        0.0%
   629 ;;BANK1               50      0       0       7        0.0%
   630 ;;BITBANK1            50      0       0       6        0.0%
   631 ;;CODE                 0      0       0       0        0.0%
   632 ;;DATA                 0      0      50      12        0.0%
   633 ;;ABS                  0      0      4E       3        0.0%
   634 ;;NULL                 0      0       0       0        0.0%
   635 ;;STACK                0      0       2       2        0.0%
   636 ;;BANK0               50     23      42       5       82.5%
   637 ;;BITBANK0            50      0       0       4        0.0%
   638 ;;SFR0                 0      0       0       1        0.0%
   639 ;;BITSFR0              0      0       0       1        0.0%
   640 ;;COMMON               E      A       C       1       85.7%
   641 ;;BITCOMMON            E      0       0       0        0.0%
   642 ;;EEDATA             100      0       0       0        0.0%
   643                           
   644                           	global	_main
   645                           psect	maintext,global,class=CODE,delta=2
   646                           global __pmaintext
   647  0141                     __pmaintext:
   648                           
   649 ;; *************** function _main *****************
   650 ;; Defined at:
   651 ;;		line 58 in file "D:\OneDrive - asd\WeiJi\Mplab_workspace\sy4\Untitled.c"
   652 ;; Parameters:    Size  Location     Type
   653 ;;		None
   654 ;; Auto vars:     Size  Location     Type
   655 ;;		None
   656 ;; Return value:  Size  Location     Type
   657 ;;                  2  750[COMMON] int 
   658 ;; Registers used:
   659 ;;		wreg, fsr0l, fsr0h, status,2, status,0, pclath, cstack
   660 ;; Tracked objects:
   661 ;;		On entry : 17F/0
   662 ;;		On exit  : 0/0
   663 ;;		Unchanged: 0/0
   664 ;; Data sizes:     COMMON   BANK0   BANK1   BANK3   BANK2
   665 ;;      Params:         0       0       0       0       0
   666 ;;      Locals:         0       0       0       0       0
   667 ;;      Temps:          0       1       0       0       0
   668 ;;      Totals:         0       1       0       0       0
   669 ;;Total ram usage:        1 bytes
   670 ;; Hardware stack levels required when called:    3
   671 ;; This function calls:
   672 ;;		_DELAY
   673 ;;		_ENABLE
   674 ;;		_eeprom_read
   675 ;;		_div
   676 ;;		_ENABLE1
   677 ;;		_eeprom_write
   678 ;;		_speed_calculate
   679 ;; This function is called by:
   680 ;;		Startup code after reset
   681 ;; This function uses a non-reentrant model
   682 ;;
   683                           psect	maintext
   684                           	file	"D:\OneDrive - asd\WeiJi\Mplab_workspace\sy4\Untitled.c"
   685                           	line	58
   686                           	global	__size_of_main
   687  0128                     	__size_of_main	equ	__end_of_main-_main
   688                           	
   689  0141                     _main:	
   690                           	opt	stack 5
   691                           ; Regs used in _main: [wreg-fsr0h+status,2+status,0+pclath+cstack]
   692                           	
   693  0141                     l4586:	
   694  0141  1683               	bsf	status, 5	;RP0=1, select bank1
   695  0142  1303               	bcf	status, 6	;RP1=0, select bank1
   696  0143  0188               	clrf	(136)^080h	;volatile
   697  0144  0185               	clrf	(133)^080h	;volatile
   698                           	line	59
   699                           	
   700  0145                     l4588:	
   701                           ;Untitled.c: 59: DELAY();
   702  0145  120A  118A  25DE   	fcall	_DELAY
              120A  118A         
   703                           	line	60
   704                           	
   705  014A                     l4590:	
   706                           ;Untitled.c: 60: PORTD=1;ENABLE();
   707  014A  3001               	movlw	(01h)
   708  014B  1283               	bcf	status, 5	;RP0=0, select bank0
   709  014C  1303               	bcf	status, 6	;RP1=0, select bank0
   710  014D  0088               	movwf	(8)	;volatile
   711                           	
   712  014E                     l4592:	
   713  014E  120A  118A  2635   	fcall	_ENABLE
              120A  118A         
   714                           	line	61
   715                           	
   716  0153                     l4594:	
   717                           ;Untitled.c: 61: PORTD=0x38;ENABLE();
   718  0153  3038               	movlw	(038h)
   719  0154  1283               	bcf	status, 5	;RP0=0, select bank0
   720  0155  1303               	bcf	status, 6	;RP1=0, select bank0
   721  0156  0088               	movwf	(8)	;volatile
   722                           	
   723  0157                     l4596:	
   724  0157  120A  118A  2635   	fcall	_ENABLE
              120A  118A         
   725                           	line	62
   726                           	
   727  015C                     l4598:	
   728                           ;Untitled.c: 62: PORTD=0x0C;ENABLE();
   729  015C  300C               	movlw	(0Ch)
   730  015D  1283               	bcf	status, 5	;RP0=0, select bank0
   731  015E  1303               	bcf	status, 6	;RP1=0, select bank0
   732  015F  0088               	movwf	(8)	;volatile
   733                           	
   734  0160                     l4600:	
   735  0160  120A  118A  2635   	fcall	_ENABLE
              120A  118A         
   736                           	line	63
   737                           	
   738  0165                     l4602:	
   739                           ;Untitled.c: 63: PORTD=0x06; ENABLE();
   740  0165  3006               	movlw	(06h)
   741  0166  1283               	bcf	status, 5	;RP0=0, select bank0
   742  0167  1303               	bcf	status, 6	;RP1=0, select bank0
   743  0168  0088               	movwf	(8)	;volatile
   744                           	
   745  0169                     l4604:	
   746  0169  120A  118A  2635   	fcall	_ENABLE
              120A  118A         
   747                           	line	64
   748                           	
   749  016E                     l4606:	
   750                           ;Untitled.c: 64: li_cheng.da_ta[0]=eeprom_read(0x00);
   751  016E  3000               	movlw	(0)
   752  016F  120A  118A  259D   	fcall	_eeprom_read
              120A  118A         
   753  0174  1283               	bcf	status, 5	;RP0=0, select bank0
   754  0175  1303               	bcf	status, 6	;RP1=0, select bank0
   755  0176  00C2               	movwf	(??_main+0)+0
   756  0177  0842               	movf	(??_main+0)+0,w
   757  0178  00C3               	movwf	(_li_cheng)
   758                           	line	65
   759                           	
   760  0179                     l4608:	
   761                           ;Untitled.c: 65: li_cheng.da_ta [1]=eeprom_read(0x01);
   762  0179  3001               	movlw	(01h)
   763  017A  120A  118A  259D   	fcall	_eeprom_read
              120A  118A         
   764  017F  1283               	bcf	status, 5	;RP0=0, select bank0
   765  0180  1303               	bcf	status, 6	;RP1=0, select bank0
   766  0181  00C2               	movwf	(??_main+0)+0
   767  0182  0842               	movf	(??_main+0)+0,w
   768  0183  00C4               	movwf	0+(_li_cheng)+01h
   769                           	line	66
   770                           	
   771  0184                     l4610:	
   772                           ;Untitled.c: 66: li_cheng.da_ta [2]=eeprom_read (0x02);
   773  0184  3002               	movlw	(02h)
   774  0185  120A  118A  259D   	fcall	_eeprom_read
              120A  118A         
   775  018A  1283               	bcf	status, 5	;RP0=0, select bank0
   776  018B  1303               	bcf	status, 6	;RP1=0, select bank0
   777  018C  00C2               	movwf	(??_main+0)+0
   778  018D  0842               	movf	(??_main+0)+0,w
   779  018E  00C5               	movwf	0+(_li_cheng)+02h
   780                           	line	67
   781                           	
   782  018F                     l4612:	
   783                           ;Untitled.c: 67: m=250;n =0;
   784  018F  30FA               	movlw	(0FAh)
   785  0190  00C2               	movwf	(??_main+0)+0
   786  0191  0842               	movf	(??_main+0)+0,w
   787  0192  00D2               	movwf	(_m)
   788                           	
   789  0193                     l4614:	
   790  0193  01C9               	clrf	(_n)
   791  0194  01CA               	clrf	(_n+1)
   792                           	line	68
   793                           	
   794  0195                     l4616:	
   795                           ;Untitled.c: 68: TRISB0=1;count_temp=0;TRISA0=0;RE0=0;TRISE0=0;
   796  0195  1683               	bsf	status, 5	;RP0=1, select bank1
   797  0196  1303               	bcf	status, 6	;RP1=0, select bank1
   798  0197  1406               	bsf	(1072/8)^080h,(1072)&7
   799                           	
   800  0198                     l4618:	
   801  0198  1283               	bcf	status, 5	;RP0=0, select bank0
   802  0199  1303               	bcf	status, 6	;RP1=0, select bank0
   803  019A  01C7               	clrf	(_count_temp)
   804  019B  01C8               	clrf	(_count_temp+1)
   805                           	
   806  019C                     l4620:	
   807  019C  1683               	bsf	status, 5	;RP0=1, select bank1
   808  019D  1303               	bcf	status, 6	;RP1=0, select bank1
   809  019E  1005               	bcf	(1064/8)^080h,(1064)&7
   810                           	
   811  019F                     l4622:	
   812  019F  1283               	bcf	status, 5	;RP0=0, select bank0
   813  01A0  1303               	bcf	status, 6	;RP1=0, select bank0
   814  01A1  1009               	bcf	(72/8),(72)&7
   815                           	
   816  01A2                     l4624:	
   817  01A2  1683               	bsf	status, 5	;RP0=1, select bank1
   818  01A3  1303               	bcf	status, 6	;RP1=0, select bank1
   819  01A4  1009               	bcf	(1096/8)^080h,(1096)&7
   820                           	line	69
   821                           	
   822  01A5                     l4626:	
   823                           ;Untitled.c: 69: OPTION_REG =0B01000111;T0IF=0; TMR0=0;
   824  01A5  3047               	movlw	(047h)
   825  01A6  0081               	movwf	(129)^080h	;volatile
   826                           	
   827  01A7                     l4628:	
   828  01A7  110B               	bcf	(90/8),(90)&7
   829  01A8  1283               	bcf	status, 5	;RP0=0, select bank0
   830  01A9  1303               	bcf	status, 6	;RP1=0, select bank0
   831  01AA  0181               	clrf	(1)	;volatile
   832                           	line	70
   833                           	
   834  01AB                     l4630:	
   835                           ;Untitled.c: 70: GIE =1;INTE =1;INTF =0;
   836  01AB  178B               	bsf	(95/8),(95)&7
   837                           	
   838  01AC                     l4632:	
   839  01AC  160B               	bsf	(92/8),(92)&7
   840                           	
   841  01AD                     l4634:	
   842  01AD  108B               	bcf	(89/8),(89)&7
   843  01AE  29AF               	goto	l4636
   844                           	line	71
   845                           ;Untitled.c: 71: while (1)
   846                           	
   847  01AF                     l751:	
   848                           	line	73
   849                           	
   850  01AF                     l4636:	
   851                           ;Untitled.c: 72: {
   852                           ;Untitled.c: 73: div ();
   853  01AF  120A  118A  2015   	fcall	_div
              120A  118A         
   854                           	line	74
   855                           	
   856  01B4                     l4638:	
   857                           ;Untitled.c: 74: PORTD=0x80; ENABLE();
   858  01B4  3080               	movlw	(080h)
   859  01B5  1283               	bcf	status, 5	;RP0=0, select bank0
   860  01B6  1303               	bcf	status, 6	;RP1=0, select bank0
   861  01B7  0088               	movwf	(8)	;volatile
   862                           	
   863  01B8                     l4640:	
   864  01B8  120A  118A  2635   	fcall	_ENABLE
              120A  118A         
   865                           	line	75
   866                           	
   867  01BD                     l4642:	
   868                           ;Untitled.c: 75: PORTD=table[a];ENABLE1();
   869  01BD  1283               	bcf	status, 5	;RP0=0, select bank0
   870  01BE  1303               	bcf	status, 6	;RP1=0, select bank0
   871  01BF  0855               	movf	(_a),w
   872  01C0  3E58               	addlw	_table&0ffh
   873  01C1  0084               	movwf	fsr0
   874  01C2  1383               	bcf	status, 7	;select IRP bank0
   875  01C3  0800               	movf	indf,w
   876  01C4  0088               	movwf	(8)	;volatile
   877                           	
   878  01C5                     l4644:	
   879  01C5  120A  118A  2627   	fcall	_ENABLE1
              120A  118A         
   880                           	line	76
   881                           	
   882  01CA                     l4646:	
   883                           ;Untitled.c: 76: PORTD=table[b];ENABLE1();
   884  01CA  1283               	bcf	status, 5	;RP0=0, select bank0
   885  01CB  1303               	bcf	status, 6	;RP1=0, select bank0
   886  01CC  084B               	movf	(_b),w
   887  01CD  3E58               	addlw	_table&0ffh
   888  01CE  0084               	movwf	fsr0
   889  01CF  1383               	bcf	status, 7	;select IRP bank0
   890  01D0  0800               	movf	indf,w
   891  01D1  0088               	movwf	(8)	;volatile
   892                           	
   893  01D2                     l4648:	
   894  01D2  120A  118A  2627   	fcall	_ENABLE1
              120A  118A         
   895                           	line	77
   896                           	
   897  01D7                     l4650:	
   898                           ;Untitled.c: 77: PORTD=table[c];ENABLE1();
   899  01D7  1283               	bcf	status, 5	;RP0=0, select bank0
   900  01D8  1303               	bcf	status, 6	;RP1=0, select bank0
   901  01D9  084C               	movf	(_c),w
   902  01DA  3E58               	addlw	_table&0ffh
   903  01DB  0084               	movwf	fsr0
   904  01DC  1383               	bcf	status, 7	;select IRP bank0
   905  01DD  0800               	movf	indf,w
   906  01DE  0088               	movwf	(8)	;volatile
   907                           	
   908  01DF                     l4652:	
   909  01DF  120A  118A  2627   	fcall	_ENABLE1
              120A  118A         
   910                           	line	78
   911                           	
   912  01E4                     l4654:	
   913                           ;Untitled.c: 78: PORTD=table[d];ENABLE1();
   914  01E4  1283               	bcf	status, 5	;RP0=0, select bank0
   915  01E5  1303               	bcf	status, 6	;RP1=0, select bank0
   916  01E6  0856               	movf	(_d),w
   917  01E7  3E58               	addlw	_table&0ffh
   918  01E8  0084               	movwf	fsr0
   919  01E9  1383               	bcf	status, 7	;select IRP bank0
   920  01EA  0800               	movf	indf,w
   921  01EB  0088               	movwf	(8)	;volatile
   922                           	
   923  01EC                     l4656:	
   924  01EC  120A  118A  2627   	fcall	_ENABLE1
              120A  118A         
   925                           	line	79
   926                           	
   927  01F1                     l4658:	
   928                           ;Untitled.c: 79: PORTD=table[e];ENABLE1();
   929  01F1  1283               	bcf	status, 5	;RP0=0, select bank0
   930  01F2  1303               	bcf	status, 6	;RP1=0, select bank0
   931  01F3  084E               	movf	(_e),w
   932  01F4  3E58               	addlw	_table&0ffh
   933  01F5  0084               	movwf	fsr0
   934  01F6  1383               	bcf	status, 7	;select IRP bank0
   935  01F7  0800               	movf	indf,w
   936  01F8  0088               	movwf	(8)	;volatile
   937                           	
   938  01F9                     l4660:	
   939  01F9  120A  118A  2627   	fcall	_ENABLE1
              120A  118A         
   940                           	line	80
   941                           	
   942  01FE                     l4662:	
   943                           ;Untitled.c: 80: PORTD=table[f];ENABLE1();
   944  01FE  1283               	bcf	status, 5	;RP0=0, select bank0
   945  01FF  1303               	bcf	status, 6	;RP1=0, select bank0
   946  0200  0850               	movf	(_f),w
   947  0201  3E58               	addlw	_table&0ffh
   948  0202  0084               	movwf	fsr0
   949  0203  1383               	bcf	status, 7	;select IRP bank0
   950  0204  0800               	movf	indf,w
   951  0205  0088               	movwf	(8)	;volatile
   952                           	
   953  0206                     l4664:	
   954  0206  120A  118A  2627   	fcall	_ENABLE1
              120A  118A         
   955                           	line	81
   956                           	
   957  020B                     l4666:	
   958                           ;Untitled.c: 81: eeprom_write(0x02,li_cheng.da_ta [2]);
   959  020B  1283               	bcf	status, 5	;RP0=0, select bank0
   960  020C  1303               	bcf	status, 6	;RP1=0, select bank0
   961  020D  0845               	movf	0+(_li_cheng)+02h,w
   962  020E  00C2               	movwf	(??_main+0)+0
   963  020F  0842               	movf	(??_main+0)+0,w
   964  0210  00A0               	movwf	(?_eeprom_write)
   965  0211  3002               	movlw	(02h)
   966  0212  120A  118A  2536   	fcall	_eeprom_write
              120A  118A         
   967                           	line	82
   968                           	
   969  0217                     l4668:	
   970                           ;Untitled.c: 82: eeprom_write(0x01,li_cheng.da_ta [1]);
   971  0217  1283               	bcf	status, 5	;RP0=0, select bank0
   972  0218  1303               	bcf	status, 6	;RP1=0, select bank0
   973  0219  0844               	movf	0+(_li_cheng)+01h,w
   974  021A  00C2               	movwf	(??_main+0)+0
   975  021B  0842               	movf	(??_main+0)+0,w
   976  021C  00A0               	movwf	(?_eeprom_write)
   977  021D  3001               	movlw	(01h)
   978  021E  120A  118A  2536   	fcall	_eeprom_write
              120A  118A         
   979                           	line	83
   980                           	
   981  0223                     l4670:	
   982                           ;Untitled.c: 83: eeprom_write(0x00,li_cheng.da_ta [0]);
   983  0223  1283               	bcf	status, 5	;RP0=0, select bank0
   984  0224  1303               	bcf	status, 6	;RP1=0, select bank0
   985  0225  0843               	movf	(_li_cheng),w
   986  0226  00C2               	movwf	(??_main+0)+0
   987  0227  0842               	movf	(??_main+0)+0,w
   988  0228  00A0               	movwf	(?_eeprom_write)
   989  0229  3000               	movlw	(0)
   990  022A  120A  118A  2536   	fcall	_eeprom_write
              120A  118A         
   991                           	line	84
   992                           	
   993  022F                     l4672:	
   994                           ;Untitled.c: 84: speed_calculate();
   995  022F  120A  118A  2482   	fcall	_speed_calculate
              120A  118A         
   996                           	line	85
   997                           	
   998  0234                     l4674:	
   999                           ;Untitled.c: 85: PORTD=0xc0; ENABLE();
  1000  0234  30C0               	movlw	(0C0h)
  1001  0235  1283               	bcf	status, 5	;RP0=0, select bank0
  1002  0236  1303               	bcf	status, 6	;RP1=0, select bank0
  1003  0237  0088               	movwf	(8)	;volatile
  1004                           	
  1005  0238                     l4676:	
  1006  0238  120A  118A  2635   	fcall	_ENABLE
              120A  118A         
  1007                           	line	86
  1008                           	
  1009  023D                     l4678:	
  1010                           ;Untitled.c: 86: PORTD=table[d1];ENABLE1();
  1011  023D  1283               	bcf	status, 5	;RP0=0, select bank0
  1012  023E  1303               	bcf	status, 6	;RP1=0, select bank0
  1013  023F  084D               	movf	(_d1),w
  1014  0240  3E58               	addlw	_table&0ffh
  1015  0241  0084               	movwf	fsr0
  1016  0242  1383               	bcf	status, 7	;select IRP bank0
  1017  0243  0800               	movf	indf,w
  1018  0244  0088               	movwf	(8)	;volatile
  1019                           	
  1020  0245                     l4680:	
  1021  0245  120A  118A  2627   	fcall	_ENABLE1
              120A  118A         
  1022                           	line	87
  1023                           	
  1024  024A                     l4682:	
  1025                           ;Untitled.c: 87: PORTD=table[e1];ENABLE1();
  1026  024A  1283               	bcf	status, 5	;RP0=0, select bank0
  1027  024B  1303               	bcf	status, 6	;RP1=0, select bank0
  1028  024C  084F               	movf	(_e1),w
  1029  024D  3E58               	addlw	_table&0ffh
  1030  024E  0084               	movwf	fsr0
  1031  024F  1383               	bcf	status, 7	;select IRP bank0
  1032  0250  0800               	movf	indf,w
  1033  0251  0088               	movwf	(8)	;volatile
  1034                           	
  1035  0252                     l4684:	
  1036  0252  120A  118A  2627   	fcall	_ENABLE1
              120A  118A         
  1037                           	line	88
  1038                           	
  1039  0257                     l4686:	
  1040                           ;Untitled.c: 88: PORTD=table[f1];ENABLE1();
  1041  0257  1283               	bcf	status, 5	;RP0=0, select bank0
  1042  0258  1303               	bcf	status, 6	;RP1=0, select bank0
  1043  0259  0851               	movf	(_f1),w
  1044  025A  3E58               	addlw	_table&0ffh
  1045  025B  0084               	movwf	fsr0
  1046  025C  1383               	bcf	status, 7	;select IRP bank0
  1047  025D  0800               	movf	indf,w
  1048  025E  0088               	movwf	(8)	;volatile
  1049                           	
  1050  025F                     l4688:	
  1051  025F  120A  118A  2627   	fcall	_ENABLE1
              120A  118A         
  1052  0264  29AF               	goto	l4636
  1053                           	line	89
  1054                           	
  1055  0265                     l752:	
  1056                           	line	71
  1057  0265  29AF               	goto	l4636
  1058                           	
  1059  0266                     l753:	
  1060                           	line	90
  1061                           	
  1062  0266                     l754:	
  1063                           	global	start
  1064  0266  120A  118A  2812   	ljmp	start
  1065                           	opt stack 0
  1066                           GLOBAL	__end_of_main
  1067  0269                     	__end_of_main:
  1068 ;; =============== function _main ends ============
  1069                           
  1070                           	signat	_main,90
  1071                           	global	_speed_calculate
  1072                           psect	text341,local,class=CODE,delta=2
  1073                           global __ptext341
  1074  0482                     __ptext341:
  1075                           
  1076 ;; *************** function _speed_calculate *****************
  1077 ;; Defined at:
  1078 ;;		line 34 in file "D:\OneDrive - asd\WeiJi\Mplab_workspace\sy4\Untitled.c"
  1079 ;; Parameters:    Size  Location     Type
  1080 ;;		None
  1081 ;; Auto vars:     Size  Location     Type
  1082 ;;  z               1   12[BANK0 ] unsigned char 
  1083 ;; Return value:  Size  Location     Type
  1084 ;;		None               void
  1085 ;; Registers used:
  1086 ;;		wreg, status,2, status,0, pclath, cstack
  1087 ;; Tracked objects:
  1088 ;;		On entry : 0/0
  1089 ;;		On exit  : 0/0
  1090 ;;		Unchanged: 0/0
  1091 ;; Data sizes:     COMMON   BANK0   BANK1   BANK3   BANK2
  1092 ;;      Params:         0       0       0       0       0
  1093 ;;      Locals:         0       1       0       0       0
  1094 ;;      Temps:          0       3       0       0       0
  1095 ;;      Totals:         0       4       0       0       0
  1096 ;;Total ram usage:        4 bytes
  1097 ;; Hardware stack levels used:    1
  1098 ;; Hardware stack levels required when called:    2
  1099 ;; This function calls:
  1100 ;;		___awdiv
  1101 ;;		___bmul
  1102 ;; This function is called by:
  1103 ;;		_main
  1104 ;; This function uses a non-reentrant model
  1105 ;;
  1106                           psect	text341
  1107                           	file	"D:\OneDrive - asd\WeiJi\Mplab_workspace\sy4\Untitled.c"
  1108                           	line	34
  1109                           	global	__size_of_speed_calculate
  1110  0068                     	__size_of_speed_calculate	equ	__end_of_speed_calculate-_speed_calculate
  1111                           	
  1112  0482                     _speed_calculate:	
  1113                           	opt	stack 5
  1114                           ; Regs used in _speed_calculate: [wreg+status,2+status,0+pclath+cstack]
  1115                           	line	35
  1116                           	
  1117  0482                     l4584:	
  1118                           ;Untitled.c: 35: speed=18998/t_speed;
  1119  0482  1283               	bcf	status, 5	;RP0=0, select bank0
  1120  0483  1303               	bcf	status, 6	;RP1=0, select bank0
  1121  0484  0854               	movf	(_t_speed+1),w
  1122  0485  01A1               	clrf	(?___awdiv+1)
  1123  0486  07A1               	addwf	(?___awdiv+1)
  1124  0487  0853               	movf	(_t_speed),w
  1125  0488  01A0               	clrf	(?___awdiv)
  1126  0489  07A0               	addwf	(?___awdiv)
  1127                           
  1128  048A  3036               	movlw	low(04A36h)
  1129  048B  00A2               	movwf	0+(?___awdiv)+02h
  1130  048C  304A               	movlw	high(04A36h)
  1131  048D  00A3               	movwf	(0+(?___awdiv)+02h)+1
  1132  048E  120A  118A  239C   	fcall	___awdiv
              120A  118A         
  1133  0493  1283               	bcf	status, 5	;RP0=0, select bank0
  1134  0494  1303               	bcf	status, 6	;RP1=0, select bank0
  1135  0495  0820               	movf	(0+(?___awdiv)),w
  1136  0496  00A9               	movwf	(??_speed_calculate+0)+0
  1137  0497  0829               	movf	(??_speed_calculate+0)+0,w
  1138  0498  00D7               	movwf	(_speed)
  1139                           	line	36
  1140                           ;Untitled.c: 36: d1=speed/100;z=speed-d1*100;
  1141  0499  3064               	movlw	low(064h)
  1142  049A  00A0               	movwf	(?___awdiv)
  1143  049B  3000               	movlw	high(064h)
  1144  049C  00A1               	movwf	((?___awdiv))+1
  1145  049D  0857               	movf	(_speed),w
  1146  049E  00A9               	movwf	(??_speed_calculate+0)+0
  1147  049F  01AA               	clrf	(??_speed_calculate+0)+0+1
  1148  04A0  0829               	movf	0+(??_speed_calculate+0)+0,w
  1149  04A1  00A2               	movwf	0+(?___awdiv)+02h
  1150  04A2  082A               	movf	1+(??_speed_calculate+0)+0,w
  1151  04A3  00A3               	movwf	1+(?___awdiv)+02h
  1152  04A4  120A  118A  239C   	fcall	___awdiv
              120A  118A         
  1153  04A9  1283               	bcf	status, 5	;RP0=0, select bank0
  1154  04AA  1303               	bcf	status, 6	;RP1=0, select bank0
  1155  04AB  0820               	movf	(0+(?___awdiv)),w
  1156  04AC  00AB               	movwf	(??_speed_calculate+2)+0
  1157  04AD  082B               	movf	(??_speed_calculate+2)+0,w
  1158  04AE  00CD               	movwf	(_d1)
  1159  04AF  3064               	movlw	(064h)
  1160  04B0  00A9               	movwf	(??_speed_calculate+0)+0
  1161  04B1  0829               	movf	(??_speed_calculate+0)+0,w
  1162  04B2  00A0               	movwf	(?___bmul)
  1163  04B3  084D               	movf	(_d1),w
  1164  04B4  120A  118A  25FA   	fcall	___bmul
              120A  118A         
  1165  04B9  3AFF               	xorlw	0ffh
  1166  04BA  3E01               	addlw	1
  1167  04BB  1283               	bcf	status, 5	;RP0=0, select bank0
  1168  04BC  1303               	bcf	status, 6	;RP1=0, select bank0
  1169  04BD  0757               	addwf	(_speed),w
  1170  04BE  00AA               	movwf	(??_speed_calculate+1)+0
  1171  04BF  082A               	movf	(??_speed_calculate+1)+0,w
  1172  04C0  00AC               	movwf	(speed_calculate@z)
  1173                           	line	37
  1174                           ;Untitled.c: 37: e1=z/10;f1=z-e1*10;
  1175  04C1  300A               	movlw	low(0Ah)
  1176  04C2  00A0               	movwf	(?___awdiv)
  1177  04C3  3000               	movlw	high(0Ah)
  1178  04C4  00A1               	movwf	((?___awdiv))+1
  1179  04C5  082C               	movf	(speed_calculate@z),w
  1180  04C6  00A9               	movwf	(??_speed_calculate+0)+0
  1181  04C7  01AA               	clrf	(??_speed_calculate+0)+0+1
  1182  04C8  0829               	movf	0+(??_speed_calculate+0)+0,w
  1183  04C9  00A2               	movwf	0+(?___awdiv)+02h
  1184  04CA  082A               	movf	1+(??_speed_calculate+0)+0,w
  1185  04CB  00A3               	movwf	1+(?___awdiv)+02h
  1186  04CC  120A  118A  239C   	fcall	___awdiv
              120A  118A         
  1187  04D1  1283               	bcf	status, 5	;RP0=0, select bank0
  1188  04D2  1303               	bcf	status, 6	;RP1=0, select bank0
  1189  04D3  0820               	movf	(0+(?___awdiv)),w
  1190  04D4  00AB               	movwf	(??_speed_calculate+2)+0
  1191  04D5  082B               	movf	(??_speed_calculate+2)+0,w
  1192  04D6  00CF               	movwf	(_e1)
  1193  04D7  300A               	movlw	(0Ah)
  1194  04D8  00A9               	movwf	(??_speed_calculate+0)+0
  1195  04D9  0829               	movf	(??_speed_calculate+0)+0,w
  1196  04DA  00A0               	movwf	(?___bmul)
  1197  04DB  084F               	movf	(_e1),w
  1198  04DC  120A  118A  25FA   	fcall	___bmul
              120A  118A         
  1199  04E1  3AFF               	xorlw	0ffh
  1200  04E2  3E01               	addlw	1
  1201  04E3  1283               	bcf	status, 5	;RP0=0, select bank0
  1202  04E4  1303               	bcf	status, 6	;RP1=0, select bank0
  1203  04E5  072C               	addwf	(speed_calculate@z),w
  1204  04E6  00AA               	movwf	(??_speed_calculate+1)+0
  1205  04E7  082A               	movf	(??_speed_calculate+1)+0,w
  1206  04E8  00D1               	movwf	(_f1)
  1207                           	line	38
  1208                           	
  1209  04E9                     l739:	
  1210  04E9  0008               	return
  1211                           	opt stack 0
  1212                           GLOBAL	__end_of_speed_calculate
  1213  04EA                     	__end_of_speed_calculate:
  1214 ;; =============== function _speed_calculate ends ============
  1215                           
  1216                           	signat	_speed_calculate,88
  1217                           	global	_div
  1218                           psect	text342,local,class=CODE,delta=2
  1219                           global __ptext342
  1220  0015                     __ptext342:
  1221                           
  1222 ;; *************** function _div *****************
  1223 ;; Defined at:
  1224 ;;		line 24 in file "D:\OneDrive - asd\WeiJi\Mplab_workspace\sy4\Untitled.c"
  1225 ;; Parameters:    Size  Location     Type
  1226 ;;		None
  1227 ;; Auto vars:     Size  Location     Type
  1228 ;;  x               4   27[BANK0 ] long 
  1229 ;;  y               2   32[BANK0 ] int 
  1230 ;;  z               1   31[BANK0 ] unsigned char 
  1231 ;; Return value:  Size  Location     Type
  1232 ;;		None               void
  1233 ;; Registers used:
  1234 ;;		wreg, status,2, status,0, pclath, cstack
  1235 ;; Tracked objects:
  1236 ;;		On entry : 0/0
  1237 ;;		On exit  : 0/0
  1238 ;;		Unchanged: 0/0
  1239 ;; Data sizes:     COMMON   BANK0   BANK1   BANK3   BANK2
  1240 ;;      Params:         0       0       0       0       0
  1241 ;;      Locals:         0       7       0       0       0
  1242 ;;      Temps:          0      12       0       0       0
  1243 ;;      Totals:         0      19       0       0       0
  1244 ;;Total ram usage:       19 bytes
  1245 ;; Hardware stack levels used:    1
  1246 ;; Hardware stack levels required when called:    2
  1247 ;; This function calls:
  1248 ;;		___lldiv
  1249 ;;		___lmul
  1250 ;;		___aldiv
  1251 ;;		___wmul
  1252 ;;		___awdiv
  1253 ;;		___bmul
  1254 ;; This function is called by:
  1255 ;;		_main
  1256 ;; This function uses a non-reentrant model
  1257 ;;
  1258                           psect	text342
  1259                           	file	"D:\OneDrive - asd\WeiJi\Mplab_workspace\sy4\Untitled.c"
  1260                           	line	24
  1261                           	global	__size_of_div
  1262  012C                     	__size_of_div	equ	__end_of_div-_div
  1263                           	
  1264  0015                     _div:	
  1265                           	opt	stack 5
  1266                           ; Regs used in _div: [wreg+status,2+status,0+pclath+cstack]
  1267                           	line	25
  1268                           	
  1269  0015                     l4582:	
  1270                           ;Untitled.c: 25: a=li_cheng.count/100000;x=li_cheng.count-a*100000;
  1271  0015  3000               	movlw	0
  1272  0016  1283               	bcf	status, 5	;RP0=0, select bank0
  1273  0017  1303               	bcf	status, 6	;RP1=0, select bank0
  1274  0018  00A3               	movwf	(?___lldiv+3)
  1275  0019  3001               	movlw	01h
  1276  001A  00A2               	movwf	(?___lldiv+2)
  1277  001B  3086               	movlw	086h
  1278  001C  00A1               	movwf	(?___lldiv+1)
  1279  001D  30A0               	movlw	0A0h
  1280  001E  00A0               	movwf	(?___lldiv)
  1281                           
  1282  001F  0846               	movf	(_li_cheng+3),w
  1283  0020  00A7               	movwf	3+(?___lldiv)+04h
  1284  0021  0845               	movf	(_li_cheng+2),w
  1285  0022  00A6               	movwf	2+(?___lldiv)+04h
  1286  0023  0844               	movf	(_li_cheng+1),w
  1287  0024  00A5               	movwf	1+(?___lldiv)+04h
  1288  0025  0843               	movf	(_li_cheng),w
  1289  0026  00A4               	movwf	0+(?___lldiv)+04h
  1290                           
  1291  0027  120A  118A  2412   	fcall	___lldiv
              120A  118A         
  1292  002C  1283               	bcf	status, 5	;RP0=0, select bank0
  1293  002D  1303               	bcf	status, 6	;RP1=0, select bank0
  1294  002E  0820               	movf	0+(((0+(?___lldiv)))),w
  1295  002F  00AF               	movwf	(??_div+0)+0
  1296  0030  082F               	movf	(??_div+0)+0,w
  1297  0031  00D5               	movwf	(_a)
  1298  0032  0843               	movf	(_li_cheng),w
  1299  0033  00AF               	movwf	(??_div+0)+0
  1300  0034  0844               	movf	(_li_cheng+1),w
  1301  0035  00B0               	movwf	((??_div+0)+0+1)
  1302  0036  0845               	movf	(_li_cheng+2),w
  1303  0037  00B1               	movwf	((??_div+0)+0+2)
  1304  0038  0846               	movf	(_li_cheng+3),w
  1305  0039  00B2               	movwf	((??_div+0)+0+3)
  1306  003A  0855               	movf	(_a),w
  1307  003B  00B3               	movwf	(??_div+4)+0
  1308  003C  01B4               	clrf	((??_div+4)+0+1)
  1309  003D  01B5               	clrf	((??_div+4)+0+2)
  1310  003E  01B6               	clrf	((??_div+4)+0+3)
  1311  003F  0836               	movf	3+(??_div+4)+0,w
  1312  0040  00A3               	movwf	(?___lmul+3)
  1313  0041  0835               	movf	2+(??_div+4)+0,w
  1314  0042  00A2               	movwf	(?___lmul+2)
  1315  0043  0834               	movf	1+(??_div+4)+0,w
  1316  0044  00A1               	movwf	(?___lmul+1)
  1317  0045  0833               	movf	0+(??_div+4)+0,w
  1318  0046  00A0               	movwf	(?___lmul)
  1319                           
  1320  0047  3000               	movlw	0
  1321  0048  00A7               	movwf	3+(?___lmul)+04h
  1322  0049  3001               	movlw	01h
  1323  004A  00A6               	movwf	2+(?___lmul)+04h
  1324  004B  3086               	movlw	086h
  1325  004C  00A5               	movwf	1+(?___lmul)+04h
  1326  004D  30A0               	movlw	0A0h
  1327  004E  00A4               	movwf	0+(?___lmul)+04h
  1328                           
  1329  004F  120A  118A  24EA   	fcall	___lmul
              120A  118A         
  1330  0054  1283               	bcf	status, 5	;RP0=0, select bank0
  1331  0055  1303               	bcf	status, 6	;RP1=0, select bank0
  1332  0056  0920               	comf	(0+(?___lmul)),w
  1333  0057  00B7               	movwf	(??_div+8)+0
  1334  0058  0921               	comf	(1+(?___lmul)),w
  1335  0059  00B8               	movwf	((??_div+8)+0+1)
  1336  005A  0922               	comf	(2+(?___lmul)),w
  1337  005B  00B9               	movwf	((??_div+8)+0+2)
  1338  005C  0923               	comf	(3+(?___lmul)),w
  1339  005D  00BA               	movwf	((??_div+8)+0+3)
  1340  005E  0AB7               	incf	(??_div+8)+0,f
  1341  005F  1903               	skipnz
  1342  0060  0AB8               	incf	((??_div+8)+0+1),f
  1343  0061  1903               	skipnz
  1344  0062  0AB9               	incf	((??_div+8)+0+2),f
  1345  0063  1903               	skipnz
  1346  0064  0ABA               	incf	((??_div+8)+0+3),f
  1347  0065  0837               	movf	0+(??_div+8)+0,w
  1348  0066  07AF               	addwf	(??_div+0)+0,f
  1349  0067  0838               	movf	1+(??_div+8)+0,w
  1350  0068  1803               	skipnc
  1351  0069  0F38               	incfsz	1+(??_div+8)+0,w
  1352  006A  286C               	goto	u2830
  1353  006B  286D               	goto	u2831
  1354  006C                     u2830:
  1355  006C  07B0               	addwf	(??_div+0)+1,f
  1356  006D                     u2831:
  1357  006D  0839               	movf	2+(??_div+8)+0,w
  1358  006E  1803               	skipnc
  1359  006F  0F39               	incfsz	2+(??_div+8)+0,w
  1360  0070  2872               	goto	u2832
  1361  0071  2873               	goto	u2833
  1362  0072                     u2832:
  1363  0072  07B1               	addwf	(??_div+0)+2,f
  1364  0073                     u2833:
  1365  0073  083A               	movf	3+(??_div+8)+0,w
  1366  0074  1803               	skipnc
  1367  0075  0A3A               	incf	3+(??_div+8)+0,w
  1368  0076  07B2               	addwf	(??_div+0)+3,f
  1369  0077  0832               	movf	3+(??_div+0)+0,w
  1370  0078  00BE               	movwf	(div@x+3)
  1371  0079  0831               	movf	2+(??_div+0)+0,w
  1372  007A  00BD               	movwf	(div@x+2)
  1373  007B  0830               	movf	1+(??_div+0)+0,w
  1374  007C  00BC               	movwf	(div@x+1)
  1375  007D  082F               	movf	0+(??_div+0)+0,w
  1376  007E  00BB               	movwf	(div@x)
  1377                           
  1378                           	line	26
  1379                           ;Untitled.c: 26: b=x/10000;y=x-b*10000;
  1380  007F  3000               	movlw	0
  1381  0080  00A3               	movwf	(?___aldiv+3)
  1382  0081  3000               	movlw	0
  1383  0082  00A2               	movwf	(?___aldiv+2)
  1384  0083  3027               	movlw	027h
  1385  0084  00A1               	movwf	(?___aldiv+1)
  1386  0085  3010               	movlw	010h
  1387  0086  00A0               	movwf	(?___aldiv)
  1388                           
  1389  0087  083E               	movf	(div@x+3),w
  1390  0088  00A7               	movwf	3+(?___aldiv)+04h
  1391  0089  083D               	movf	(div@x+2),w
  1392  008A  00A6               	movwf	2+(?___aldiv)+04h
  1393  008B  083C               	movf	(div@x+1),w
  1394  008C  00A5               	movwf	1+(?___aldiv)+04h
  1395  008D  083B               	movf	(div@x),w
  1396  008E  00A4               	movwf	0+(?___aldiv)+04h
  1397                           
  1398  008F  120A  118A  2269   	fcall	___aldiv
              120A  118A         
  1399  0094  1283               	bcf	status, 5	;RP0=0, select bank0
  1400  0095  1303               	bcf	status, 6	;RP1=0, select bank0
  1401  0096  0820               	movf	0+(((0+(?___aldiv)))),w
  1402  0097  00AF               	movwf	(??_div+0)+0
  1403  0098  082F               	movf	(??_div+0)+0,w
  1404  0099  00CB               	movwf	(_b)
  1405  009A  084B               	movf	(_b),w
  1406  009B  00AF               	movwf	(??_div+0)+0
  1407  009C  01B0               	clrf	(??_div+0)+0+1
  1408  009D  082F               	movf	0+(??_div+0)+0,w
  1409  009E  00A0               	movwf	(?___wmul)
  1410  009F  0830               	movf	1+(??_div+0)+0,w
  1411  00A0  00A1               	movwf	(?___wmul+1)
  1412  00A1  3010               	movlw	low(02710h)
  1413  00A2  00A2               	movwf	0+(?___wmul)+02h
  1414  00A3  3027               	movlw	high(02710h)
  1415  00A4  00A3               	movwf	(0+(?___wmul)+02h)+1
  1416  00A5  120A  118A  2571   	fcall	___wmul
              120A  118A         
  1417  00AA  1283               	bcf	status, 5	;RP0=0, select bank0
  1418  00AB  1303               	bcf	status, 6	;RP1=0, select bank0
  1419  00AC  0920               	comf	(0+(?___wmul)),w
  1420  00AD  00B1               	movwf	(??_div+2)+0
  1421  00AE  0921               	comf	(1+(?___wmul)),w
  1422  00AF  00B2               	movwf	((??_div+2)+0+1)
  1423  00B0  0AB1               	incf	(??_div+2)+0,f
  1424  00B1  1903               	skipnz
  1425  00B2  0AB2               	incf	((??_div+2)+0+1),f
  1426  00B3  083B               	movf	(div@x),w
  1427  00B4  0731               	addwf	0+(??_div+2)+0,w
  1428  00B5  00C0               	movwf	(div@y)
  1429  00B6  083C               	movf	(div@x+1),w
  1430  00B7  1803               	skipnc
  1431  00B8  0A3C               	incf	(div@x+1),w
  1432  00B9  0732               	addwf	1+(??_div+2)+0,w
  1433  00BA  00C1               	movwf	1+(div@y)
  1434                           	line	27
  1435                           ;Untitled.c: 27: c=y/1000;y=y-c*1000;
  1436  00BB  30E8               	movlw	low(03E8h)
  1437  00BC  00A0               	movwf	(?___awdiv)
  1438  00BD  3003               	movlw	high(03E8h)
  1439  00BE  00A1               	movwf	((?___awdiv))+1
  1440  00BF  0841               	movf	(div@y+1),w
  1441  00C0  01A3               	clrf	1+(?___awdiv)+02h
  1442  00C1  07A3               	addwf	1+(?___awdiv)+02h
  1443  00C2  0840               	movf	(div@y),w
  1444  00C3  01A2               	clrf	0+(?___awdiv)+02h
  1445  00C4  07A2               	addwf	0+(?___awdiv)+02h
  1446                           
  1447  00C5  120A  118A  239C   	fcall	___awdiv
              120A  118A         
  1448  00CA  1283               	bcf	status, 5	;RP0=0, select bank0
  1449  00CB  1303               	bcf	status, 6	;RP1=0, select bank0
  1450  00CC  0820               	movf	(0+(?___awdiv)),w
  1451  00CD  00AF               	movwf	(??_div+0)+0
  1452  00CE  082F               	movf	(??_div+0)+0,w
  1453  00CF  00CC               	movwf	(_c)
  1454  00D0  084C               	movf	(_c),w
  1455  00D1  00AF               	movwf	(??_div+0)+0
  1456  00D2  01B0               	clrf	(??_div+0)+0+1
  1457  00D3  082F               	movf	0+(??_div+0)+0,w
  1458  00D4  00A0               	movwf	(?___wmul)
  1459  00D5  0830               	movf	1+(??_div+0)+0,w
  1460  00D6  00A1               	movwf	(?___wmul+1)
  1461  00D7  30E8               	movlw	low(03E8h)
  1462  00D8  00A2               	movwf	0+(?___wmul)+02h
  1463  00D9  3003               	movlw	high(03E8h)
  1464  00DA  00A3               	movwf	(0+(?___wmul)+02h)+1
  1465  00DB  120A  118A  2571   	fcall	___wmul
              120A  118A         
  1466  00E0  1283               	bcf	status, 5	;RP0=0, select bank0
  1467  00E1  1303               	bcf	status, 6	;RP1=0, select bank0
  1468  00E2  0920               	comf	(0+(?___wmul)),w
  1469  00E3  00B1               	movwf	(??_div+2)+0
  1470  00E4  0921               	comf	(1+(?___wmul)),w
  1471  00E5  00B2               	movwf	((??_div+2)+0+1)
  1472  00E6  0AB1               	incf	(??_div+2)+0,f
  1473  00E7  1903               	skipnz
  1474  00E8  0AB2               	incf	((??_div+2)+0+1),f
  1475  00E9  0840               	movf	(div@y),w
  1476  00EA  0731               	addwf	0+(??_div+2)+0,w
  1477  00EB  00C0               	movwf	(div@y)
  1478  00EC  0841               	movf	(div@y+1),w
  1479  00ED  1803               	skipnc
  1480  00EE  0A41               	incf	(div@y+1),w
  1481  00EF  0732               	addwf	1+(??_div+2)+0,w
  1482  00F0  00C1               	movwf	1+(div@y)
  1483                           	line	28
  1484                           ;Untitled.c: 28: d=y/100;z=y-d*100;
  1485  00F1  3064               	movlw	low(064h)
  1486  00F2  00A0               	movwf	(?___awdiv)
  1487  00F3  3000               	movlw	high(064h)
  1488  00F4  00A1               	movwf	((?___awdiv))+1
  1489  00F5  0841               	movf	(div@y+1),w
  1490  00F6  01A3               	clrf	1+(?___awdiv)+02h
  1491  00F7  07A3               	addwf	1+(?___awdiv)+02h
  1492  00F8  0840               	movf	(div@y),w
  1493  00F9  01A2               	clrf	0+(?___awdiv)+02h
  1494  00FA  07A2               	addwf	0+(?___awdiv)+02h
  1495                           
  1496  00FB  120A  118A  239C   	fcall	___awdiv
              120A  118A         
  1497  0100  1283               	bcf	status, 5	;RP0=0, select bank0
  1498  0101  1303               	bcf	status, 6	;RP1=0, select bank0
  1499  0102  0820               	movf	(0+(?___awdiv)),w
  1500  0103  00AF               	movwf	(??_div+0)+0
  1501  0104  082F               	movf	(??_div+0)+0,w
  1502  0105  00D6               	movwf	(_d)
  1503  0106  3064               	movlw	(064h)
  1504  0107  00AF               	movwf	(??_div+0)+0
  1505  0108  082F               	movf	(??_div+0)+0,w
  1506  0109  00A0               	movwf	(?___bmul)
  1507  010A  0856               	movf	(_d),w
  1508  010B  120A  118A  25FA   	fcall	___bmul
              120A  118A         
  1509  0110  3AFF               	xorlw	0ffh
  1510  0111  3E01               	addlw	1
  1511  0112  1283               	bcf	status, 5	;RP0=0, select bank0
  1512  0113  1303               	bcf	status, 6	;RP1=0, select bank0
  1513  0114  0740               	addwf	(div@y),w
  1514  0115  00B0               	movwf	(??_div+1)+0
  1515  0116  0830               	movf	(??_div+1)+0,w
  1516  0117  00BF               	movwf	(div@z)
  1517                           	line	29
  1518                           ;Untitled.c: 29: e=z/10;f=z-e*10;
  1519  0118  300A               	movlw	low(0Ah)
  1520  0119  00A0               	movwf	(?___awdiv)
  1521  011A  3000               	movlw	high(0Ah)
  1522  011B  00A1               	movwf	((?___awdiv))+1
  1523  011C  083F               	movf	(div@z),w
  1524  011D  00AF               	movwf	(??_div+0)+0
  1525  011E  01B0               	clrf	(??_div+0)+0+1
  1526  011F  082F               	movf	0+(??_div+0)+0,w
  1527  0120  00A2               	movwf	0+(?___awdiv)+02h
  1528  0121  0830               	movf	1+(??_div+0)+0,w
  1529  0122  00A3               	movwf	1+(?___awdiv)+02h
  1530  0123  120A  118A  239C   	fcall	___awdiv
              120A  118A         
  1531  0128  1283               	bcf	status, 5	;RP0=0, select bank0
  1532  0129  1303               	bcf	status, 6	;RP1=0, select bank0
  1533  012A  0820               	movf	(0+(?___awdiv)),w
  1534  012B  00B1               	movwf	(??_div+2)+0
  1535  012C  0831               	movf	(??_div+2)+0,w
  1536  012D  00CE               	movwf	(_e)
  1537  012E  300A               	movlw	(0Ah)
  1538  012F  00AF               	movwf	(??_div+0)+0
  1539  0130  082F               	movf	(??_div+0)+0,w
  1540  0131  00A0               	movwf	(?___bmul)
  1541  0132  084E               	movf	(_e),w
  1542  0133  120A  118A  25FA   	fcall	___bmul
              120A  118A         
  1543  0138  3AFF               	xorlw	0ffh
  1544  0139  3E01               	addlw	1
  1545  013A  1283               	bcf	status, 5	;RP0=0, select bank0
  1546  013B  1303               	bcf	status, 6	;RP1=0, select bank0
  1547  013C  073F               	addwf	(div@z),w
  1548  013D  00B0               	movwf	(??_div+1)+0
  1549  013E  0830               	movf	(??_div+1)+0,w
  1550  013F  00D0               	movwf	(_f)
  1551                           	line	30
  1552                           	
  1553  0140                     l736:	
  1554  0140  0008               	return
  1555                           	opt stack 0
  1556                           GLOBAL	__end_of_div
  1557  0141                     	__end_of_div:
  1558 ;; =============== function _div ends ============
  1559                           
  1560                           	signat	_div,88
  1561                           	global	_ENABLE1
  1562                           psect	text343,local,class=CODE,delta=2
  1563                           global __ptext343
  1564  0627                     __ptext343:
  1565                           
  1566 ;; *************** function _ENABLE1 *****************
  1567 ;; Defined at:
  1568 ;;		line 20 in file "D:\OneDrive - asd\WeiJi\Mplab_workspace\sy4\Untitled.c"
  1569 ;; Parameters:    Size  Location     Type
  1570 ;;		None
  1571 ;; Auto vars:     Size  Location     Type
  1572 ;;		None
  1573 ;; Return value:  Size  Location     Type
  1574 ;;		None               void
  1575 ;; Registers used:
  1576 ;;		wreg, status,2, status,0, pclath, cstack
  1577 ;; Tracked objects:
  1578 ;;		On entry : 0/0
  1579 ;;		On exit  : 0/0
  1580 ;;		Unchanged: 0/0
  1581 ;; Data sizes:     COMMON   BANK0   BANK1   BANK3   BANK2
  1582 ;;      Params:         0       0       0       0       0
  1583 ;;      Locals:         0       0       0       0       0
  1584 ;;      Temps:          0       0       0       0       0
  1585 ;;      Totals:         0       0       0       0       0
  1586 ;;Total ram usage:        0 bytes
  1587 ;; Hardware stack levels used:    1
  1588 ;; Hardware stack levels required when called:    2
  1589 ;; This function calls:
  1590 ;;		_DELAY
  1591 ;; This function is called by:
  1592 ;;		_main
  1593 ;; This function uses a non-reentrant model
  1594 ;;
  1595                           psect	text343
  1596                           	file	"D:\OneDrive - asd\WeiJi\Mplab_workspace\sy4\Untitled.c"
  1597                           	line	20
  1598                           	global	__size_of_ENABLE1
  1599  000E                     	__size_of_ENABLE1	equ	__end_of_ENABLE1-_ENABLE1
  1600                           	
  1601  0627                     _ENABLE1:	
  1602                           	opt	stack 5
  1603                           ; Regs used in _ENABLE1: [wreg+status,2+status,0+pclath+cstack]
  1604                           	
  1605  0627                     l4576:	
  1606  0627  1283               	bcf	status, 5	;RP0=0, select bank0
  1607  0628  1303               	bcf	status, 6	;RP1=0, select bank0
  1608  0629  1685               	bsf	(45/8),(45)&7
  1609  062A  1205               	bcf	(44/8),(44)&7
  1610  062B  1185               	bcf	(43/8),(43)&7
  1611                           	
  1612  062C                     l4578:	
  1613  062C  120A  118A  25DE   	fcall	_DELAY
              120A  118A         
  1614                           	
  1615  0631                     l4580:	
  1616  0631  1283               	bcf	status, 5	;RP0=0, select bank0
  1617  0632  1303               	bcf	status, 6	;RP1=0, select bank0
  1618  0633  1585               	bsf	(43/8),(43)&7
  1619                           	
  1620  0634                     l733:	
  1621  0634  0008               	return
  1622                           	opt stack 0
  1623                           GLOBAL	__end_of_ENABLE1
  1624  0635                     	__end_of_ENABLE1:
  1625 ;; =============== function _ENABLE1 ends ============
  1626                           
  1627                           	signat	_ENABLE1,88
  1628                           	global	_ENABLE
  1629                           psect	text344,local,class=CODE,delta=2
  1630                           global __ptext344
  1631  0635                     __ptext344:
  1632                           
  1633 ;; *************** function _ENABLE *****************
  1634 ;; Defined at:
  1635 ;;		line 16 in file "D:\OneDrive - asd\WeiJi\Mplab_workspace\sy4\Untitled.c"
  1636 ;; Parameters:    Size  Location     Type
  1637 ;;		None
  1638 ;; Auto vars:     Size  Location     Type
  1639 ;;		None
  1640 ;; Return value:  Size  Location     Type
  1641 ;;		None               void
  1642 ;; Registers used:
  1643 ;;		wreg, status,2, status,0, pclath, cstack
  1644 ;; Tracked objects:
  1645 ;;		On entry : 0/0
  1646 ;;		On exit  : 0/0
  1647 ;;		Unchanged: 0/0
  1648 ;; Data sizes:     COMMON   BANK0   BANK1   BANK3   BANK2
  1649 ;;      Params:         0       0       0       0       0
  1650 ;;      Locals:         0       0       0       0       0
  1651 ;;      Temps:          0       0       0       0       0
  1652 ;;      Totals:         0       0       0       0       0
  1653 ;;Total ram usage:        0 bytes
  1654 ;; Hardware stack levels used:    1
  1655 ;; Hardware stack levels required when called:    2
  1656 ;; This function calls:
  1657 ;;		_DELAY
  1658 ;; This function is called by:
  1659 ;;		_main
  1660 ;; This function uses a non-reentrant model
  1661 ;;
  1662                           psect	text344
  1663                           	file	"D:\OneDrive - asd\WeiJi\Mplab_workspace\sy4\Untitled.c"
  1664                           	line	16
  1665                           	global	__size_of_ENABLE
  1666  000E                     	__size_of_ENABLE	equ	__end_of_ENABLE-_ENABLE
  1667                           	
  1668  0635                     _ENABLE:	
  1669                           	opt	stack 5
  1670                           ; Regs used in _ENABLE: [wreg+status,2+status,0+pclath+cstack]
  1671                           	
  1672  0635                     l4570:	
  1673  0635  1283               	bcf	status, 5	;RP0=0, select bank0
  1674  0636  1303               	bcf	status, 6	;RP1=0, select bank0
  1675  0637  1285               	bcf	(45/8),(45)&7
  1676  0638  1205               	bcf	(44/8),(44)&7
  1677  0639  1185               	bcf	(43/8),(43)&7
  1678                           	
  1679  063A                     l4572:	
  1680  063A  120A  118A  25DE   	fcall	_DELAY
              120A  118A         
  1681                           	
  1682  063F                     l4574:	
  1683  063F  1283               	bcf	status, 5	;RP0=0, select bank0
  1684  0640  1303               	bcf	status, 6	;RP1=0, select bank0
  1685  0641  1585               	bsf	(43/8),(43)&7
  1686                           	
  1687  0642                     l730:	
  1688  0642  0008               	return
  1689                           	opt stack 0
  1690                           GLOBAL	__end_of_ENABLE
  1691  0643                     	__end_of_ENABLE:
  1692 ;; =============== function _ENABLE ends ============
  1693                           
  1694                           	signat	_ENABLE,88
  1695                           	global	___aldiv
  1696                           psect	text345,local,class=CODE,delta=2
  1697                           global __ptext345
  1698  0269                     __ptext345:
  1699                           
  1700 ;; *************** function ___aldiv *****************
  1701 ;; Defined at:
  1702 ;;		line 5 in file "C:\Program Files (x86)\HI-TECH Software\PICC\9.82\sources\aldiv.c"
  1703 ;; Parameters:    Size  Location     Type
  1704 ;;  divisor         4    0[BANK0 ] long 
  1705 ;;  dividend        4    4[BANK0 ] long 
  1706 ;; Auto vars:     Size  Location     Type
  1707 ;;  quotient        4   11[BANK0 ] long 
  1708 ;;  sign            1   10[BANK0 ] unsigned char 
  1709 ;;  counter         1    9[BANK0 ] unsigned char 
  1710 ;; Return value:  Size  Location     Type
  1711 ;;                  4    0[BANK0 ] long 
  1712 ;; Registers used:
  1713 ;;		wreg, status,2, status,0
  1714 ;; Tracked objects:
  1715 ;;		On entry : 0/0
  1716 ;;		On exit  : 0/0
  1717 ;;		Unchanged: 0/0
  1718 ;; Data sizes:     COMMON   BANK0   BANK1   BANK3   BANK2
  1719 ;;      Params:         0       8       0       0       0
  1720 ;;      Locals:         0       6       0       0       0
  1721 ;;      Temps:          0       1       0       0       0
  1722 ;;      Totals:         0      15       0       0       0
  1723 ;;Total ram usage:       15 bytes
  1724 ;; Hardware stack levels used:    1
  1725 ;; Hardware stack levels required when called:    1
  1726 ;; This function calls:
  1727 ;;		Nothing
  1728 ;; This function is called by:
  1729 ;;		_div
  1730 ;; This function uses a non-reentrant model
  1731 ;;
  1732                           psect	text345
  1733                           	file	"C:\Program Files (x86)\HI-TECH Software\PICC\9.82\sources\aldiv.c"
  1734                           	line	5
  1735                           	global	__size_of___aldiv
  1736  00A8                     	__size_of___aldiv	equ	__end_of___aldiv-___aldiv
  1737                           	
  1738  0269                     ___aldiv:	
  1739                           	opt	stack 5
  1740                           ; Regs used in ___aldiv: [wreg+status,2+status,0]
  1741                           	line	9
  1742                           	
  1743  0269                     l4528:	
  1744  0269  1283               	bcf	status, 5	;RP0=0, select bank0
  1745  026A  1303               	bcf	status, 6	;RP1=0, select bank0
  1746  026B  01AA               	clrf	(___aldiv@sign)
  1747                           	line	10
  1748  026C  1FA3               	btfss	(___aldiv@divisor+3),7
  1749  026D  2A6F               	goto	u2731
  1750  026E  2A70               	goto	u2730
  1751  026F                     u2731:
  1752  026F  2A7F               	goto	l4534
  1753  0270                     u2730:
  1754                           	line	11
  1755                           	
  1756  0270                     l4530:	
  1757  0270  09A0               	comf	(___aldiv@divisor),f
  1758  0271  09A1               	comf	(___aldiv@divisor+1),f
  1759  0272  09A2               	comf	(___aldiv@divisor+2),f
  1760  0273  09A3               	comf	(___aldiv@divisor+3),f
  1761  0274  0AA0               	incf	(___aldiv@divisor),f
  1762  0275  1903               	skipnz
  1763  0276  0AA1               	incf	(___aldiv@divisor+1),f
  1764  0277  1903               	skipnz
  1765  0278  0AA2               	incf	(___aldiv@divisor+2),f
  1766  0279  1903               	skipnz
  1767  027A  0AA3               	incf	(___aldiv@divisor+3),f
  1768                           	line	12
  1769                           	
  1770  027B                     l4532:	
  1771  027B  01AA               	clrf	(___aldiv@sign)
  1772  027C  1403               	bsf	status,0
  1773  027D  0DAA               	rlf	(___aldiv@sign),f
  1774  027E  2A7F               	goto	l4534
  1775                           	line	13
  1776                           	
  1777  027F                     l2871:	
  1778                           	line	14
  1779                           	
  1780  027F                     l4534:	
  1781  027F  1FA7               	btfss	(___aldiv@dividend+3),7
  1782  0280  2A82               	goto	u2741
  1783  0281  2A83               	goto	u2740
  1784  0282                     u2741:
  1785  0282  2A93               	goto	l4540
  1786  0283                     u2740:
  1787                           	line	15
  1788                           	
  1789  0283                     l4536:	
  1790  0283  09A4               	comf	(___aldiv@dividend),f
  1791  0284  09A5               	comf	(___aldiv@dividend+1),f
  1792  0285  09A6               	comf	(___aldiv@dividend+2),f
  1793  0286  09A7               	comf	(___aldiv@dividend+3),f
  1794  0287  0AA4               	incf	(___aldiv@dividend),f
  1795  0288  1903               	skipnz
  1796  0289  0AA5               	incf	(___aldiv@dividend+1),f
  1797  028A  1903               	skipnz
  1798  028B  0AA6               	incf	(___aldiv@dividend+2),f
  1799  028C  1903               	skipnz
  1800  028D  0AA7               	incf	(___aldiv@dividend+3),f
  1801                           	line	16
  1802                           	
  1803  028E                     l4538:	
  1804  028E  3001               	movlw	(01h)
  1805  028F  00A8               	movwf	(??___aldiv+0)+0
  1806  0290  0828               	movf	(??___aldiv+0)+0,w
  1807  0291  06AA               	xorwf	(___aldiv@sign),f
  1808  0292  2A93               	goto	l4540
  1809                           	line	17
  1810                           	
  1811  0293                     l2872:	
  1812                           	line	18
  1813                           	
  1814  0293                     l4540:	
  1815  0293  3000               	movlw	0
  1816  0294  00AE               	movwf	(___aldiv@quotient+3)
  1817  0295  3000               	movlw	0
  1818  0296  00AD               	movwf	(___aldiv@quotient+2)
  1819  0297  3000               	movlw	0
  1820  0298  00AC               	movwf	(___aldiv@quotient+1)
  1821  0299  3000               	movlw	0
  1822  029A  00AB               	movwf	(___aldiv@quotient)
  1823                           
  1824                           	line	19
  1825                           	
  1826  029B                     l4542:	
  1827  029B  0823               	movf	(___aldiv@divisor+3),w
  1828  029C  0422               	iorwf	(___aldiv@divisor+2),w
  1829  029D  0421               	iorwf	(___aldiv@divisor+1),w
  1830  029E  0420               	iorwf	(___aldiv@divisor),w
  1831  029F  1903               	skipnz
  1832  02A0  2AA2               	goto	u2751
  1833  02A1  2AA3               	goto	u2750
  1834  02A2                     u2751:
  1835  02A2  2AF7               	goto	l4562
  1836  02A3                     u2750:
  1837                           	line	20
  1838                           	
  1839  02A3                     l4544:	
  1840  02A3  01A9               	clrf	(___aldiv@counter)
  1841  02A4  1403               	bsf	status,0
  1842  02A5  0DA9               	rlf	(___aldiv@counter),f
  1843                           	line	21
  1844  02A6  2AB5               	goto	l4548
  1845                           	
  1846  02A7                     l2875:	
  1847                           	line	22
  1848                           	
  1849  02A7                     l4546:	
  1850  02A7  3001               	movlw	01h
  1851  02A8  00A8               	movwf	(??___aldiv+0)+0
  1852  02A9                     u2765:
  1853  02A9  1003               	clrc
  1854  02AA  0DA0               	rlf	(___aldiv@divisor),f
  1855  02AB  0DA1               	rlf	(___aldiv@divisor+1),f
  1856  02AC  0DA2               	rlf	(___aldiv@divisor+2),f
  1857  02AD  0DA3               	rlf	(___aldiv@divisor+3),f
  1858  02AE  0BA8               	decfsz	(??___aldiv+0)+0
  1859  02AF  2AA9               	goto	u2765
  1860                           	line	23
  1861  02B0  3001               	movlw	(01h)
  1862  02B1  00A8               	movwf	(??___aldiv+0)+0
  1863  02B2  0828               	movf	(??___aldiv+0)+0,w
  1864  02B3  07A9               	addwf	(___aldiv@counter),f
  1865  02B4  2AB5               	goto	l4548
  1866                           	line	24
  1867                           	
  1868  02B5                     l2874:	
  1869                           	line	21
  1870                           	
  1871  02B5                     l4548:	
  1872  02B5  1FA3               	btfss	(___aldiv@divisor+3),(31)&7
  1873  02B6  2AB8               	goto	u2771
  1874  02B7  2AB9               	goto	u2770
  1875  02B8                     u2771:
  1876  02B8  2AA7               	goto	l4546
  1877  02B9                     u2770:
  1878  02B9  2ABB               	goto	l4550
  1879                           	
  1880  02BA                     l2876:	
  1881  02BA  2ABB               	goto	l4550
  1882                           	line	25
  1883                           	
  1884  02BB                     l2877:	
  1885                           	line	26
  1886                           	
  1887  02BB                     l4550:	
  1888  02BB  3001               	movlw	01h
  1889  02BC  00A8               	movwf	(??___aldiv+0)+0
  1890  02BD                     u2785:
  1891  02BD  1003               	clrc
  1892  02BE  0DAB               	rlf	(___aldiv@quotient),f
  1893  02BF  0DAC               	rlf	(___aldiv@quotient+1),f
  1894  02C0  0DAD               	rlf	(___aldiv@quotient+2),f
  1895  02C1  0DAE               	rlf	(___aldiv@quotient+3),f
  1896  02C2  0BA8               	decfsz	(??___aldiv+0)+0
  1897  02C3  2ABD               	goto	u2785
  1898                           	line	27
  1899                           	
  1900  02C4                     l4552:	
  1901  02C4  0823               	movf	(___aldiv@divisor+3),w
  1902  02C5  0227               	subwf	(___aldiv@dividend+3),w
  1903  02C6  1D03               	skipz
  1904  02C7  2AD2               	goto	u2795
  1905  02C8  0822               	movf	(___aldiv@divisor+2),w
  1906  02C9  0226               	subwf	(___aldiv@dividend+2),w
  1907  02CA  1D03               	skipz
  1908  02CB  2AD2               	goto	u2795
  1909  02CC  0821               	movf	(___aldiv@divisor+1),w
  1910  02CD  0225               	subwf	(___aldiv@dividend+1),w
  1911  02CE  1D03               	skipz
  1912  02CF  2AD2               	goto	u2795
  1913  02D0  0820               	movf	(___aldiv@divisor),w
  1914  02D1  0224               	subwf	(___aldiv@dividend),w
  1915  02D2                     u2795:
  1916  02D2  1C03               	skipc
  1917  02D3  2AD5               	goto	u2791
  1918  02D4  2AD6               	goto	u2790
  1919  02D5                     u2791:
  1920  02D5  2AE6               	goto	l4558
  1921  02D6                     u2790:
  1922                           	line	28
  1923                           	
  1924  02D6                     l4554:	
  1925  02D6  0820               	movf	(___aldiv@divisor),w
  1926  02D7  02A4               	subwf	(___aldiv@dividend),f
  1927  02D8  0821               	movf	(___aldiv@divisor+1),w
  1928  02D9  1C03               	skipc
  1929  02DA  0F21               	incfsz	(___aldiv@divisor+1),w
  1930  02DB  02A5               	subwf	(___aldiv@dividend+1),f
  1931  02DC  0822               	movf	(___aldiv@divisor+2),w
  1932  02DD  1C03               	skipc
  1933  02DE  0F22               	incfsz	(___aldiv@divisor+2),w
  1934  02DF  02A6               	subwf	(___aldiv@dividend+2),f
  1935  02E0  0823               	movf	(___aldiv@divisor+3),w
  1936  02E1  1C03               	skipc
  1937  02E2  0F23               	incfsz	(___aldiv@divisor+3),w
  1938  02E3  02A7               	subwf	(___aldiv@dividend+3),f
  1939                           	line	29
  1940                           	
  1941  02E4                     l4556:	
  1942  02E4  142B               	bsf	(___aldiv@quotient)+(0/8),(0)&7
  1943  02E5  2AE6               	goto	l4558
  1944                           	line	30
  1945                           	
  1946  02E6                     l2878:	
  1947                           	line	31
  1948                           	
  1949  02E6                     l4558:	
  1950  02E6  3001               	movlw	01h
  1951  02E7                     u2805:
  1952  02E7  1003               	clrc
  1953  02E8  0CA3               	rrf	(___aldiv@divisor+3),f
  1954  02E9  0CA2               	rrf	(___aldiv@divisor+2),f
  1955  02EA  0CA1               	rrf	(___aldiv@divisor+1),f
  1956  02EB  0CA0               	rrf	(___aldiv@divisor),f
  1957  02EC  3EFF               	addlw	-1
  1958  02ED  1D03               	skipz
  1959  02EE  2AE7               	goto	u2805
  1960                           
  1961                           	line	32
  1962                           	
  1963  02EF                     l4560:	
  1964  02EF  3001               	movlw	low(01h)
  1965  02F0  02A9               	subwf	(___aldiv@counter),f
  1966  02F1  1D03               	btfss	status,2
  1967  02F2  2AF4               	goto	u2811
  1968  02F3  2AF5               	goto	u2810
  1969  02F4                     u2811:
  1970  02F4  2ABB               	goto	l4550
  1971  02F5                     u2810:
  1972  02F5  2AF7               	goto	l4562
  1973                           	
  1974  02F6                     l2879:	
  1975  02F6  2AF7               	goto	l4562
  1976                           	line	33
  1977                           	
  1978  02F7                     l2873:	
  1979                           	line	34
  1980                           	
  1981  02F7                     l4562:	
  1982  02F7  082A               	movf	(___aldiv@sign),w
  1983  02F8  1D03               	skipz
  1984  02F9  2AFB               	goto	u2820
  1985  02FA  2B07               	goto	l4566
  1986  02FB                     u2820:
  1987                           	line	35
  1988                           	
  1989  02FB                     l4564:	
  1990  02FB  09AB               	comf	(___aldiv@quotient),f
  1991  02FC  09AC               	comf	(___aldiv@quotient+1),f
  1992  02FD  09AD               	comf	(___aldiv@quotient+2),f
  1993  02FE  09AE               	comf	(___aldiv@quotient+3),f
  1994  02FF  0AAB               	incf	(___aldiv@quotient),f
  1995  0300  1903               	skipnz
  1996  0301  0AAC               	incf	(___aldiv@quotient+1),f
  1997  0302  1903               	skipnz
  1998  0303  0AAD               	incf	(___aldiv@quotient+2),f
  1999  0304  1903               	skipnz
  2000  0305  0AAE               	incf	(___aldiv@quotient+3),f
  2001  0306  2B07               	goto	l4566
  2002                           	
  2003  0307                     l2880:	
  2004                           	line	36
  2005                           	
  2006  0307                     l4566:	
  2007  0307  082E               	movf	(___aldiv@quotient+3),w
  2008  0308  00A3               	movwf	(?___aldiv+3)
  2009  0309  082D               	movf	(___aldiv@quotient+2),w
  2010  030A  00A2               	movwf	(?___aldiv+2)
  2011  030B  082C               	movf	(___aldiv@quotient+1),w
  2012  030C  00A1               	movwf	(?___aldiv+1)
  2013  030D  082B               	movf	(___aldiv@quotient),w
  2014  030E  00A0               	movwf	(?___aldiv)
  2015                           
  2016  030F  2B10               	goto	l2881
  2017                           	
  2018  0310                     l4568:	
  2019                           	line	37
  2020                           	
  2021  0310                     l2881:	
  2022  0310  0008               	return
  2023                           	opt stack 0
  2024                           GLOBAL	__end_of___aldiv
  2025  0311                     	__end_of___aldiv:
  2026 ;; =============== function ___aldiv ends ============
  2027                           
  2028                           	signat	___aldiv,8316
  2029                           	global	___lldiv
  2030                           psect	text346,local,class=CODE,delta=2
  2031                           global __ptext346
  2032  0412                     __ptext346:
  2033                           
  2034 ;; *************** function ___lldiv *****************
  2035 ;; Defined at:
  2036 ;;		line 5 in file "C:\Program Files (x86)\HI-TECH Software\PICC\9.82\sources\lldiv.c"
  2037 ;; Parameters:    Size  Location     Type
  2038 ;;  divisor         4    0[BANK0 ] unsigned long 
  2039 ;;  dividend        4    4[BANK0 ] unsigned long 
  2040 ;; Auto vars:     Size  Location     Type
  2041 ;;  quotient        4    9[BANK0 ] unsigned long 
  2042 ;;  counter         1   13[BANK0 ] unsigned char 
  2043 ;; Return value:  Size  Location     Type
  2044 ;;                  4    0[BANK0 ] unsigned long 
  2045 ;; Registers used:
  2046 ;;		wreg, status,2, status,0
  2047 ;; Tracked objects:
  2048 ;;		On entry : 0/0
  2049 ;;		On exit  : 0/0
  2050 ;;		Unchanged: 0/0
  2051 ;; Data sizes:     COMMON   BANK0   BANK1   BANK3   BANK2
  2052 ;;      Params:         0       8       0       0       0
  2053 ;;      Locals:         0       5       0       0       0
  2054 ;;      Temps:          0       1       0       0       0
  2055 ;;      Totals:         0      14       0       0       0
  2056 ;;Total ram usage:       14 bytes
  2057 ;; Hardware stack levels used:    1
  2058 ;; Hardware stack levels required when called:    1
  2059 ;; This function calls:
  2060 ;;		Nothing
  2061 ;; This function is called by:
  2062 ;;		_div
  2063 ;; This function uses a non-reentrant model
  2064 ;;
  2065                           psect	text346
  2066                           	file	"C:\Program Files (x86)\HI-TECH Software\PICC\9.82\sources\lldiv.c"
  2067                           	line	5
  2068                           	global	__size_of___lldiv
  2069  0070                     	__size_of___lldiv	equ	__end_of___lldiv-___lldiv
  2070                           	
  2071  0412                     ___lldiv:	
  2072                           	opt	stack 5
  2073                           ; Regs used in ___lldiv: [wreg+status,2+status,0]
  2074                           	line	9
  2075                           	
  2076  0412                     l4504:	
  2077  0412  3000               	movlw	0
  2078  0413  1283               	bcf	status, 5	;RP0=0, select bank0
  2079  0414  1303               	bcf	status, 6	;RP1=0, select bank0
  2080  0415  00AC               	movwf	(___lldiv@quotient+3)
  2081  0416  3000               	movlw	0
  2082  0417  00AB               	movwf	(___lldiv@quotient+2)
  2083  0418  3000               	movlw	0
  2084  0419  00AA               	movwf	(___lldiv@quotient+1)
  2085  041A  3000               	movlw	0
  2086  041B  00A9               	movwf	(___lldiv@quotient)
  2087                           
  2088                           	line	10
  2089  041C  0823               	movf	(___lldiv@divisor+3),w
  2090  041D  0422               	iorwf	(___lldiv@divisor+2),w
  2091  041E  0421               	iorwf	(___lldiv@divisor+1),w
  2092  041F  0420               	iorwf	(___lldiv@divisor),w
  2093  0420  1903               	skipnz
  2094  0421  2C23               	goto	u2661
  2095  0422  2C24               	goto	u2660
  2096  0423                     u2661:
  2097  0423  2C78               	goto	l4524
  2098  0424                     u2660:
  2099                           	line	11
  2100                           	
  2101  0424                     l4506:	
  2102  0424  01AD               	clrf	(___lldiv@counter)
  2103  0425  1403               	bsf	status,0
  2104  0426  0DAD               	rlf	(___lldiv@counter),f
  2105                           	line	12
  2106  0427  2C36               	goto	l4510
  2107                           	
  2108  0428                     l2850:	
  2109                           	line	13
  2110                           	
  2111  0428                     l4508:	
  2112  0428  3001               	movlw	01h
  2113  0429  00A8               	movwf	(??___lldiv+0)+0
  2114  042A                     u2675:
  2115  042A  1003               	clrc
  2116  042B  0DA0               	rlf	(___lldiv@divisor),f
  2117  042C  0DA1               	rlf	(___lldiv@divisor+1),f
  2118  042D  0DA2               	rlf	(___lldiv@divisor+2),f
  2119  042E  0DA3               	rlf	(___lldiv@divisor+3),f
  2120  042F  0BA8               	decfsz	(??___lldiv+0)+0
  2121  0430  2C2A               	goto	u2675
  2122                           	line	14
  2123  0431  3001               	movlw	(01h)
  2124  0432  00A8               	movwf	(??___lldiv+0)+0
  2125  0433  0828               	movf	(??___lldiv+0)+0,w
  2126  0434  07AD               	addwf	(___lldiv@counter),f
  2127  0435  2C36               	goto	l4510
  2128                           	line	15
  2129                           	
  2130  0436                     l2849:	
  2131                           	line	12
  2132                           	
  2133  0436                     l4510:	
  2134  0436  1FA3               	btfss	(___lldiv@divisor+3),(31)&7
  2135  0437  2C39               	goto	u2681
  2136  0438  2C3A               	goto	u2680
  2137  0439                     u2681:
  2138  0439  2C28               	goto	l4508
  2139  043A                     u2680:
  2140  043A  2C3C               	goto	l4512
  2141                           	
  2142  043B                     l2851:	
  2143  043B  2C3C               	goto	l4512
  2144                           	line	16
  2145                           	
  2146  043C                     l2852:	
  2147                           	line	17
  2148                           	
  2149  043C                     l4512:	
  2150  043C  3001               	movlw	01h
  2151  043D  00A8               	movwf	(??___lldiv+0)+0
  2152  043E                     u2695:
  2153  043E  1003               	clrc
  2154  043F  0DA9               	rlf	(___lldiv@quotient),f
  2155  0440  0DAA               	rlf	(___lldiv@quotient+1),f
  2156  0441  0DAB               	rlf	(___lldiv@quotient+2),f
  2157  0442  0DAC               	rlf	(___lldiv@quotient+3),f
  2158  0443  0BA8               	decfsz	(??___lldiv+0)+0
  2159  0444  2C3E               	goto	u2695
  2160                           	line	18
  2161                           	
  2162  0445                     l4514:	
  2163  0445  0823               	movf	(___lldiv@divisor+3),w
  2164  0446  0227               	subwf	(___lldiv@dividend+3),w
  2165  0447  1D03               	skipz
  2166  0448  2C53               	goto	u2705
  2167  0449  0822               	movf	(___lldiv@divisor+2),w
  2168  044A  0226               	subwf	(___lldiv@dividend+2),w
  2169  044B  1D03               	skipz
  2170  044C  2C53               	goto	u2705
  2171  044D  0821               	movf	(___lldiv@divisor+1),w
  2172  044E  0225               	subwf	(___lldiv@dividend+1),w
  2173  044F  1D03               	skipz
  2174  0450  2C53               	goto	u2705
  2175  0451  0820               	movf	(___lldiv@divisor),w
  2176  0452  0224               	subwf	(___lldiv@dividend),w
  2177  0453                     u2705:
  2178  0453  1C03               	skipc
  2179  0454  2C56               	goto	u2701
  2180  0455  2C57               	goto	u2700
  2181  0456                     u2701:
  2182  0456  2C67               	goto	l4520
  2183  0457                     u2700:
  2184                           	line	19
  2185                           	
  2186  0457                     l4516:	
  2187  0457  0820               	movf	(___lldiv@divisor),w
  2188  0458  02A4               	subwf	(___lldiv@dividend),f
  2189  0459  0821               	movf	(___lldiv@divisor+1),w
  2190  045A  1C03               	skipc
  2191  045B  0F21               	incfsz	(___lldiv@divisor+1),w
  2192  045C  02A5               	subwf	(___lldiv@dividend+1),f
  2193  045D  0822               	movf	(___lldiv@divisor+2),w
  2194  045E  1C03               	skipc
  2195  045F  0F22               	incfsz	(___lldiv@divisor+2),w
  2196  0460  02A6               	subwf	(___lldiv@dividend+2),f
  2197  0461  0823               	movf	(___lldiv@divisor+3),w
  2198  0462  1C03               	skipc
  2199  0463  0F23               	incfsz	(___lldiv@divisor+3),w
  2200  0464  02A7               	subwf	(___lldiv@dividend+3),f
  2201                           	line	20
  2202                           	
  2203  0465                     l4518:	
  2204  0465  1429               	bsf	(___lldiv@quotient)+(0/8),(0)&7
  2205  0466  2C67               	goto	l4520
  2206                           	line	21
  2207                           	
  2208  0467                     l2853:	
  2209                           	line	22
  2210                           	
  2211  0467                     l4520:	
  2212  0467  3001               	movlw	01h
  2213  0468                     u2715:
  2214  0468  1003               	clrc
  2215  0469  0CA3               	rrf	(___lldiv@divisor+3),f
  2216  046A  0CA2               	rrf	(___lldiv@divisor+2),f
  2217  046B  0CA1               	rrf	(___lldiv@divisor+1),f
  2218  046C  0CA0               	rrf	(___lldiv@divisor),f
  2219  046D  3EFF               	addlw	-1
  2220  046E  1D03               	skipz
  2221  046F  2C68               	goto	u2715
  2222                           
  2223                           	line	23
  2224                           	
  2225  0470                     l4522:	
  2226  0470  3001               	movlw	low(01h)
  2227  0471  02AD               	subwf	(___lldiv@counter),f
  2228  0472  1D03               	btfss	status,2
  2229  0473  2C75               	goto	u2721
  2230  0474  2C76               	goto	u2720
  2231  0475                     u2721:
  2232  0475  2C3C               	goto	l4512
  2233  0476                     u2720:
  2234  0476  2C78               	goto	l4524
  2235                           	
  2236  0477                     l2854:	
  2237  0477  2C78               	goto	l4524
  2238                           	line	24
  2239                           	
  2240  0478                     l2848:	
  2241                           	line	25
  2242                           	
  2243  0478                     l4524:	
  2244  0478  082C               	movf	(___lldiv@quotient+3),w
  2245  0479  00A3               	movwf	(?___lldiv+3)
  2246  047A  082B               	movf	(___lldiv@quotient+2),w
  2247  047B  00A2               	movwf	(?___lldiv+2)
  2248  047C  082A               	movf	(___lldiv@quotient+1),w
  2249  047D  00A1               	movwf	(?___lldiv+1)
  2250  047E  0829               	movf	(___lldiv@quotient),w
  2251  047F  00A0               	movwf	(?___lldiv)
  2252                           
  2253  0480  2C81               	goto	l2855
  2254                           	
  2255  0481                     l4526:	
  2256                           	line	26
  2257                           	
  2258  0481                     l2855:	
  2259  0481  0008               	return
  2260                           	opt stack 0
  2261                           GLOBAL	__end_of___lldiv
  2262  0482                     	__end_of___lldiv:
  2263 ;; =============== function ___lldiv ends ============
  2264                           
  2265                           	signat	___lldiv,8316
  2266                           	global	___awdiv
  2267                           psect	text347,local,class=CODE,delta=2
  2268                           global __ptext347
  2269  039C                     __ptext347:
  2270                           
  2271 ;; *************** function ___awdiv *****************
  2272 ;; Defined at:
  2273 ;;		line 5 in file "C:\Program Files (x86)\HI-TECH Software\PICC\9.82\sources\awdiv.c"
  2274 ;; Parameters:    Size  Location     Type
  2275 ;;  divisor         2    0[BANK0 ] int 
  2276 ;;  dividend        2    2[BANK0 ] int 
  2277 ;; Auto vars:     Size  Location     Type
  2278 ;;  quotient        2    7[BANK0 ] int 
  2279 ;;  sign            1    6[BANK0 ] unsigned char 
  2280 ;;  counter         1    5[BANK0 ] unsigned char 
  2281 ;; Return value:  Size  Location     Type
  2282 ;;                  2    0[BANK0 ] int 
  2283 ;; Registers used:
  2284 ;;		wreg, status,2, status,0
  2285 ;; Tracked objects:
  2286 ;;		On entry : 0/0
  2287 ;;		On exit  : 0/0
  2288 ;;		Unchanged: 0/0
  2289 ;; Data sizes:     COMMON   BANK0   BANK1   BANK3   BANK2
  2290 ;;      Params:         0       4       0       0       0
  2291 ;;      Locals:         0       4       0       0       0
  2292 ;;      Temps:          0       1       0       0       0
  2293 ;;      Totals:         0       9       0       0       0
  2294 ;;Total ram usage:        9 bytes
  2295 ;; Hardware stack levels used:    1
  2296 ;; Hardware stack levels required when called:    1
  2297 ;; This function calls:
  2298 ;;		Nothing
  2299 ;; This function is called by:
  2300 ;;		_div
  2301 ;;		_speed_calculate
  2302 ;; This function uses a non-reentrant model
  2303 ;;
  2304                           psect	text347
  2305                           	file	"C:\Program Files (x86)\HI-TECH Software\PICC\9.82\sources\awdiv.c"
  2306                           	line	5
  2307                           	global	__size_of___awdiv
  2308  0076                     	__size_of___awdiv	equ	__end_of___awdiv-___awdiv
  2309                           	
  2310  039C                     ___awdiv:	
  2311                           	opt	stack 5
  2312                           ; Regs used in ___awdiv: [wreg+status,2+status,0]
  2313                           	line	9
  2314                           	
  2315  039C                     l4464:	
  2316  039C  1283               	bcf	status, 5	;RP0=0, select bank0
  2317  039D  1303               	bcf	status, 6	;RP1=0, select bank0
  2318  039E  01A6               	clrf	(___awdiv@sign)
  2319                           	line	10
  2320  039F  1FA1               	btfss	(___awdiv@divisor+1),7
  2321  03A0  2BA2               	goto	u2561
  2322  03A1  2BA3               	goto	u2560
  2323  03A2                     u2561:
  2324  03A2  2BAC               	goto	l4468
  2325  03A3                     u2560:
  2326                           	line	11
  2327                           	
  2328  03A3                     l4466:	
  2329  03A3  09A0               	comf	(___awdiv@divisor),f
  2330  03A4  09A1               	comf	(___awdiv@divisor+1),f
  2331  03A5  0AA0               	incf	(___awdiv@divisor),f
  2332  03A6  1903               	skipnz
  2333  03A7  0AA1               	incf	(___awdiv@divisor+1),f
  2334                           	line	12
  2335  03A8  01A6               	clrf	(___awdiv@sign)
  2336  03A9  1403               	bsf	status,0
  2337  03AA  0DA6               	rlf	(___awdiv@sign),f
  2338  03AB  2BAC               	goto	l4468
  2339                           	line	13
  2340                           	
  2341  03AC                     l2816:	
  2342                           	line	14
  2343                           	
  2344  03AC                     l4468:	
  2345  03AC  1FA3               	btfss	(___awdiv@dividend+1),7
  2346  03AD  2BAF               	goto	u2571
  2347  03AE  2BB0               	goto	u2570
  2348  03AF                     u2571:
  2349  03AF  2BBA               	goto	l4474
  2350  03B0                     u2570:
  2351                           	line	15
  2352                           	
  2353  03B0                     l4470:	
  2354  03B0  09A2               	comf	(___awdiv@dividend),f
  2355  03B1  09A3               	comf	(___awdiv@dividend+1),f
  2356  03B2  0AA2               	incf	(___awdiv@dividend),f
  2357  03B3  1903               	skipnz
  2358  03B4  0AA3               	incf	(___awdiv@dividend+1),f
  2359                           	line	16
  2360                           	
  2361  03B5                     l4472:	
  2362  03B5  3001               	movlw	(01h)
  2363  03B6  00A4               	movwf	(??___awdiv+0)+0
  2364  03B7  0824               	movf	(??___awdiv+0)+0,w
  2365  03B8  06A6               	xorwf	(___awdiv@sign),f
  2366  03B9  2BBA               	goto	l4474
  2367                           	line	17
  2368                           	
  2369  03BA                     l2817:	
  2370                           	line	18
  2371                           	
  2372  03BA                     l4474:	
  2373  03BA  01A7               	clrf	(___awdiv@quotient)
  2374  03BB  01A8               	clrf	(___awdiv@quotient+1)
  2375                           	line	19
  2376                           	
  2377  03BC                     l4476:	
  2378  03BC  0821               	movf	(___awdiv@divisor+1),w
  2379  03BD  0420               	iorwf	(___awdiv@divisor),w
  2380  03BE  1903               	skipnz
  2381  03BF  2BC1               	goto	u2581
  2382  03C0  2BC2               	goto	u2580
  2383  03C1                     u2581:
  2384  03C1  2C00               	goto	l4496
  2385  03C2                     u2580:
  2386                           	line	20
  2387                           	
  2388  03C2                     l4478:	
  2389  03C2  01A5               	clrf	(___awdiv@counter)
  2390  03C3  1403               	bsf	status,0
  2391  03C4  0DA5               	rlf	(___awdiv@counter),f
  2392                           	line	21
  2393  03C5  2BD2               	goto	l4484
  2394                           	
  2395  03C6                     l2820:	
  2396                           	line	22
  2397                           	
  2398  03C6                     l4480:	
  2399  03C6  3001               	movlw	01h
  2400                           	
  2401  03C7                     u2595:
  2402  03C7  1003               	clrc
  2403  03C8  0DA0               	rlf	(___awdiv@divisor),f
  2404  03C9  0DA1               	rlf	(___awdiv@divisor+1),f
  2405  03CA  3EFF               	addlw	-1
  2406  03CB  1D03               	skipz
  2407  03CC  2BC7               	goto	u2595
  2408                           	line	23
  2409                           	
  2410  03CD                     l4482:	
  2411  03CD  3001               	movlw	(01h)
  2412  03CE  00A4               	movwf	(??___awdiv+0)+0
  2413  03CF  0824               	movf	(??___awdiv+0)+0,w
  2414  03D0  07A5               	addwf	(___awdiv@counter),f
  2415  03D1  2BD2               	goto	l4484
  2416                           	line	24
  2417                           	
  2418  03D2                     l2819:	
  2419                           	line	21
  2420                           	
  2421  03D2                     l4484:	
  2422  03D2  1FA1               	btfss	(___awdiv@divisor+1),(15)&7
  2423  03D3  2BD5               	goto	u2601
  2424  03D4  2BD6               	goto	u2600
  2425  03D5                     u2601:
  2426  03D5  2BC6               	goto	l4480
  2427  03D6                     u2600:
  2428  03D6  2BD8               	goto	l4486
  2429                           	
  2430  03D7                     l2821:	
  2431  03D7  2BD8               	goto	l4486
  2432                           	line	25
  2433                           	
  2434  03D8                     l2822:	
  2435                           	line	26
  2436                           	
  2437  03D8                     l4486:	
  2438  03D8  3001               	movlw	01h
  2439                           	
  2440  03D9                     u2615:
  2441  03D9  1003               	clrc
  2442  03DA  0DA7               	rlf	(___awdiv@quotient),f
  2443  03DB  0DA8               	rlf	(___awdiv@quotient+1),f
  2444  03DC  3EFF               	addlw	-1
  2445  03DD  1D03               	skipz
  2446  03DE  2BD9               	goto	u2615
  2447                           	line	27
  2448  03DF  0821               	movf	(___awdiv@divisor+1),w
  2449  03E0  0223               	subwf	(___awdiv@dividend+1),w
  2450  03E1  1D03               	skipz
  2451  03E2  2BE5               	goto	u2625
  2452  03E3  0820               	movf	(___awdiv@divisor),w
  2453  03E4  0222               	subwf	(___awdiv@dividend),w
  2454  03E5                     u2625:
  2455  03E5  1C03               	skipc
  2456  03E6  2BE8               	goto	u2621
  2457  03E7  2BE9               	goto	u2620
  2458  03E8                     u2621:
  2459  03E8  2BF1               	goto	l4492
  2460  03E9                     u2620:
  2461                           	line	28
  2462                           	
  2463  03E9                     l4488:	
  2464  03E9  0820               	movf	(___awdiv@divisor),w
  2465  03EA  02A2               	subwf	(___awdiv@dividend),f
  2466  03EB  0821               	movf	(___awdiv@divisor+1),w
  2467  03EC  1C03               	skipc
  2468  03ED  03A3               	decf	(___awdiv@dividend+1),f
  2469  03EE  02A3               	subwf	(___awdiv@dividend+1),f
  2470                           	line	29
  2471                           	
  2472  03EF                     l4490:	
  2473  03EF  1427               	bsf	(___awdiv@quotient)+(0/8),(0)&7
  2474  03F0  2BF1               	goto	l4492
  2475                           	line	30
  2476                           	
  2477  03F1                     l2823:	
  2478                           	line	31
  2479                           	
  2480  03F1                     l4492:	
  2481  03F1  3001               	movlw	01h
  2482                           	
  2483  03F2                     u2635:
  2484  03F2  1003               	clrc
  2485  03F3  0CA1               	rrf	(___awdiv@divisor+1),f
  2486  03F4  0CA0               	rrf	(___awdiv@divisor),f
  2487  03F5  3EFF               	addlw	-1
  2488  03F6  1D03               	skipz
  2489  03F7  2BF2               	goto	u2635
  2490                           	line	32
  2491                           	
  2492  03F8                     l4494:	
  2493  03F8  3001               	movlw	low(01h)
  2494  03F9  02A5               	subwf	(___awdiv@counter),f
  2495  03FA  1D03               	btfss	status,2
  2496  03FB  2BFD               	goto	u2641
  2497  03FC  2BFE               	goto	u2640
  2498  03FD                     u2641:
  2499  03FD  2BD8               	goto	l4486
  2500  03FE                     u2640:
  2501  03FE  2C00               	goto	l4496
  2502                           	
  2503  03FF                     l2824:	
  2504  03FF  2C00               	goto	l4496
  2505                           	line	33
  2506                           	
  2507  0400                     l2818:	
  2508                           	line	34
  2509                           	
  2510  0400                     l4496:	
  2511  0400  0826               	movf	(___awdiv@sign),w
  2512  0401  1D03               	skipz
  2513  0402  2C04               	goto	u2650
  2514  0403  2C0A               	goto	l4500
  2515  0404                     u2650:
  2516                           	line	35
  2517                           	
  2518  0404                     l4498:	
  2519  0404  09A7               	comf	(___awdiv@quotient),f
  2520  0405  09A8               	comf	(___awdiv@quotient+1),f
  2521  0406  0AA7               	incf	(___awdiv@quotient),f
  2522  0407  1903               	skipnz
  2523  0408  0AA8               	incf	(___awdiv@quotient+1),f
  2524  0409  2C0A               	goto	l4500
  2525                           	
  2526  040A                     l2825:	
  2527                           	line	36
  2528                           	
  2529  040A                     l4500:	
  2530  040A  0828               	movf	(___awdiv@quotient+1),w
  2531  040B  01A1               	clrf	(?___awdiv+1)
  2532  040C  07A1               	addwf	(?___awdiv+1)
  2533  040D  0827               	movf	(___awdiv@quotient),w
  2534  040E  01A0               	clrf	(?___awdiv)
  2535  040F  07A0               	addwf	(?___awdiv)
  2536                           
  2537  0410  2C11               	goto	l2826
  2538                           	
  2539  0411                     l4502:	
  2540                           	line	37
  2541                           	
  2542  0411                     l2826:	
  2543  0411  0008               	return
  2544                           	opt stack 0
  2545                           GLOBAL	__end_of___awdiv
  2546  0412                     	__end_of___awdiv:
  2547 ;; =============== function ___awdiv ends ============
  2548                           
  2549                           	signat	___awdiv,8314
  2550                           	global	___lmul
  2551                           psect	text348,local,class=CODE,delta=2
  2552                           global __ptext348
  2553  04EA                     __ptext348:
  2554                           
  2555 ;; *************** function ___lmul *****************
  2556 ;; Defined at:
  2557 ;;		line 3 in file "C:\Program Files (x86)\HI-TECH Software\PICC\9.82\sources\lmul.c"
  2558 ;; Parameters:    Size  Location     Type
  2559 ;;  multiplier      4    0[BANK0 ] unsigned long 
  2560 ;;  multiplicand    4    4[BANK0 ] unsigned long 
  2561 ;; Auto vars:     Size  Location     Type
  2562 ;;  product         4    9[BANK0 ] unsigned long 
  2563 ;; Return value:  Size  Location     Type
  2564 ;;                  4    0[BANK0 ] unsigned long 
  2565 ;; Registers used:
  2566 ;;		wreg, status,2, status,0
  2567 ;; Tracked objects:
  2568 ;;		On entry : 0/0
  2569 ;;		On exit  : 0/0
  2570 ;;		Unchanged: 0/0
  2571 ;; Data sizes:     COMMON   BANK0   BANK1   BANK3   BANK2
  2572 ;;      Params:         0       8       0       0       0
  2573 ;;      Locals:         0       4       0       0       0
  2574 ;;      Temps:          0       1       0       0       0
  2575 ;;      Totals:         0      13       0       0       0
  2576 ;;Total ram usage:       13 bytes
  2577 ;; Hardware stack levels used:    1
  2578 ;; Hardware stack levels required when called:    1
  2579 ;; This function calls:
  2580 ;;		Nothing
  2581 ;; This function is called by:
  2582 ;;		_div
  2583 ;; This function uses a non-reentrant model
  2584 ;;
  2585                           psect	text348
  2586                           	file	"C:\Program Files (x86)\HI-TECH Software\PICC\9.82\sources\lmul.c"
  2587                           	line	3
  2588                           	global	__size_of___lmul
  2589  004C                     	__size_of___lmul	equ	__end_of___lmul-___lmul
  2590                           	
  2591  04EA                     ___lmul:	
  2592                           	opt	stack 5
  2593                           ; Regs used in ___lmul: [wreg+status,2+status,0]
  2594                           	line	4
  2595                           	
  2596  04EA                     l4450:	
  2597  04EA  3000               	movlw	0
  2598  04EB  1283               	bcf	status, 5	;RP0=0, select bank0
  2599  04EC  1303               	bcf	status, 6	;RP1=0, select bank0
  2600  04ED  00AC               	movwf	(___lmul@product+3)
  2601  04EE  3000               	movlw	0
  2602  04EF  00AB               	movwf	(___lmul@product+2)
  2603  04F0  3000               	movlw	0
  2604  04F1  00AA               	movwf	(___lmul@product+1)
  2605  04F2  3000               	movlw	0
  2606  04F3  00A9               	movwf	(___lmul@product)
  2607                           
  2608  04F4  2CF5               	goto	l4452
  2609                           	line	6
  2610                           	
  2611  04F5                     l2751:	
  2612                           	line	7
  2613                           	
  2614  04F5                     l4452:	
  2615  04F5  1C20               	btfss	(___lmul@multiplier),(0)&7
  2616  04F6  2CF8               	goto	u2511
  2617  04F7  2CF9               	goto	u2510
  2618  04F8                     u2511:
  2619  04F8  2D11               	goto	l4456
  2620  04F9                     u2510:
  2621                           	line	8
  2622                           	
  2623  04F9                     l4454:	
  2624  04F9  0824               	movf	(___lmul@multiplicand),w
  2625  04FA  07A9               	addwf	(___lmul@product),f
  2626  04FB  0825               	movf	(___lmul@multiplicand+1),w
  2627  04FC  1103               	clrz
  2628  04FD  1803               	skipnc
  2629  04FE  3E01               	addlw	1
  2630  04FF  1903               	skipnz
  2631  0500  2D02               	goto	u2521
  2632  0501  07AA               	addwf	(___lmul@product+1),f
  2633  0502                     u2521:
  2634  0502  0826               	movf	(___lmul@multiplicand+2),w
  2635  0503  1103               	clrz
  2636  0504  1803               	skipnc
  2637  0505  3E01               	addlw	1
  2638  0506  1903               	skipnz
  2639  0507  2D09               	goto	u2522
  2640  0508  07AB               	addwf	(___lmul@product+2),f
  2641  0509                     u2522:
  2642  0509  0827               	movf	(___lmul@multiplicand+3),w
  2643  050A  1103               	clrz
  2644  050B  1803               	skipnc
  2645  050C  3E01               	addlw	1
  2646  050D  1903               	skipnz
  2647  050E  2D10               	goto	u2523
  2648  050F  07AC               	addwf	(___lmul@product+3),f
  2649  0510                     u2523:
  2650                           
  2651  0510  2D11               	goto	l4456
  2652                           	
  2653  0511                     l2752:	
  2654                           	line	9
  2655                           	
  2656  0511                     l4456:	
  2657  0511  3001               	movlw	01h
  2658  0512  00A8               	movwf	(??___lmul+0)+0
  2659  0513                     u2535:
  2660  0513  1003               	clrc
  2661  0514  0DA4               	rlf	(___lmul@multiplicand),f
  2662  0515  0DA5               	rlf	(___lmul@multiplicand+1),f
  2663  0516  0DA6               	rlf	(___lmul@multiplicand+2),f
  2664  0517  0DA7               	rlf	(___lmul@multiplicand+3),f
  2665  0518  0BA8               	decfsz	(??___lmul+0)+0
  2666  0519  2D13               	goto	u2535
  2667                           	line	10
  2668                           	
  2669  051A                     l4458:	
  2670  051A  3001               	movlw	01h
  2671  051B                     u2545:
  2672  051B  1003               	clrc
  2673  051C  0CA3               	rrf	(___lmul@multiplier+3),f
  2674  051D  0CA2               	rrf	(___lmul@multiplier+2),f
  2675  051E  0CA1               	rrf	(___lmul@multiplier+1),f
  2676  051F  0CA0               	rrf	(___lmul@multiplier),f
  2677  0520  3EFF               	addlw	-1
  2678  0521  1D03               	skipz
  2679  0522  2D1B               	goto	u2545
  2680                           
  2681                           	line	11
  2682  0523  0823               	movf	(___lmul@multiplier+3),w
  2683  0524  0422               	iorwf	(___lmul@multiplier+2),w
  2684  0525  0421               	iorwf	(___lmul@multiplier+1),w
  2685  0526  0420               	iorwf	(___lmul@multiplier),w
  2686  0527  1D03               	skipz
  2687  0528  2D2A               	goto	u2551
  2688  0529  2D2B               	goto	u2550
  2689  052A                     u2551:
  2690  052A  2CF5               	goto	l4452
  2691  052B                     u2550:
  2692  052B  2D2C               	goto	l4460
  2693                           	
  2694  052C                     l2753:	
  2695                           	line	12
  2696                           	
  2697  052C                     l4460:	
  2698  052C  082C               	movf	(___lmul@product+3),w
  2699  052D  00A3               	movwf	(?___lmul+3)
  2700  052E  082B               	movf	(___lmul@product+2),w
  2701  052F  00A2               	movwf	(?___lmul+2)
  2702  0530  082A               	movf	(___lmul@product+1),w
  2703  0531  00A1               	movwf	(?___lmul+1)
  2704  0532  0829               	movf	(___lmul@product),w
  2705  0533  00A0               	movwf	(?___lmul)
  2706                           
  2707  0534  2D35               	goto	l2754
  2708                           	
  2709  0535                     l4462:	
  2710                           	line	13
  2711                           	
  2712  0535                     l2754:	
  2713  0535  0008               	return
  2714                           	opt stack 0
  2715                           GLOBAL	__end_of___lmul
  2716  0536                     	__end_of___lmul:
  2717 ;; =============== function ___lmul ends ============
  2718                           
  2719                           	signat	___lmul,8316
  2720                           	global	___wmul
  2721                           psect	text349,local,class=CODE,delta=2
  2722                           global __ptext349
  2723  0571                     __ptext349:
  2724                           
  2725 ;; *************** function ___wmul *****************
  2726 ;; Defined at:
  2727 ;;		line 3 in file "C:\Program Files (x86)\HI-TECH Software\PICC\9.82\sources\wmul.c"
  2728 ;; Parameters:    Size  Location     Type
  2729 ;;  multiplier      2    0[BANK0 ] unsigned int 
  2730 ;;  multiplicand    2    2[BANK0 ] unsigned int 
  2731 ;; Auto vars:     Size  Location     Type
  2732 ;;  product         2    4[BANK0 ] unsigned int 
  2733 ;; Return value:  Size  Location     Type
  2734 ;;                  2    0[BANK0 ] unsigned int 
  2735 ;; Registers used:
  2736 ;;		wreg, status,2, status,0
  2737 ;; Tracked objects:
  2738 ;;		On entry : 0/0
  2739 ;;		On exit  : 0/0
  2740 ;;		Unchanged: 0/0
  2741 ;; Data sizes:     COMMON   BANK0   BANK1   BANK3   BANK2
  2742 ;;      Params:         0       4       0       0       0
  2743 ;;      Locals:         0       2       0       0       0
  2744 ;;      Temps:          0       0       0       0       0
  2745 ;;      Totals:         0       6       0       0       0
  2746 ;;Total ram usage:        6 bytes
  2747 ;; Hardware stack levels used:    1
  2748 ;; Hardware stack levels required when called:    1
  2749 ;; This function calls:
  2750 ;;		Nothing
  2751 ;; This function is called by:
  2752 ;;		_div
  2753 ;; This function uses a non-reentrant model
  2754 ;;
  2755                           psect	text349
  2756                           	file	"C:\Program Files (x86)\HI-TECH Software\PICC\9.82\sources\wmul.c"
  2757                           	line	3
  2758                           	global	__size_of___wmul
  2759  002C                     	__size_of___wmul	equ	__end_of___wmul-___wmul
  2760                           	
  2761  0571                     ___wmul:	
  2762                           	opt	stack 5
  2763                           ; Regs used in ___wmul: [wreg+status,2+status,0]
  2764                           	line	4
  2765                           	
  2766  0571                     l4438:	
  2767  0571  1283               	bcf	status, 5	;RP0=0, select bank0
  2768  0572  1303               	bcf	status, 6	;RP1=0, select bank0
  2769  0573  01A4               	clrf	(___wmul@product)
  2770  0574  01A5               	clrf	(___wmul@product+1)
  2771  0575  2D76               	goto	l4440
  2772                           	line	6
  2773                           	
  2774  0576                     l2676:	
  2775                           	line	7
  2776                           	
  2777  0576                     l4440:	
  2778  0576  1C20               	btfss	(___wmul@multiplier),(0)&7
  2779  0577  2D79               	goto	u2471
  2780  0578  2D7A               	goto	u2470
  2781  0579                     u2471:
  2782  0579  2D80               	goto	l2677
  2783  057A                     u2470:
  2784                           	line	8
  2785                           	
  2786  057A                     l4442:	
  2787  057A  0822               	movf	(___wmul@multiplicand),w
  2788  057B  07A4               	addwf	(___wmul@product),f
  2789  057C  1803               	skipnc
  2790  057D  0AA5               	incf	(___wmul@product+1),f
  2791  057E  0823               	movf	(___wmul@multiplicand+1),w
  2792  057F  07A5               	addwf	(___wmul@product+1),f
  2793                           	
  2794  0580                     l2677:	
  2795                           	line	9
  2796  0580  3001               	movlw	01h
  2797                           	
  2798  0581                     u2485:
  2799  0581  1003               	clrc
  2800  0582  0DA2               	rlf	(___wmul@multiplicand),f
  2801  0583  0DA3               	rlf	(___wmul@multiplicand+1),f
  2802  0584  3EFF               	addlw	-1
  2803  0585  1D03               	skipz
  2804  0586  2D81               	goto	u2485
  2805                           	line	10
  2806                           	
  2807  0587                     l4444:	
  2808  0587  3001               	movlw	01h
  2809                           	
  2810  0588                     u2495:
  2811  0588  1003               	clrc
  2812  0589  0CA1               	rrf	(___wmul@multiplier+1),f
  2813  058A  0CA0               	rrf	(___wmul@multiplier),f
  2814  058B  3EFF               	addlw	-1
  2815  058C  1D03               	skipz
  2816  058D  2D88               	goto	u2495
  2817                           	line	11
  2818  058E  0821               	movf	((___wmul@multiplier+1)),w
  2819  058F  0420               	iorwf	((___wmul@multiplier)),w
  2820  0590  1D03               	skipz
  2821  0591  2D93               	goto	u2501
  2822  0592  2D94               	goto	u2500
  2823  0593                     u2501:
  2824  0593  2D76               	goto	l4440
  2825  0594                     u2500:
  2826  0594  2D95               	goto	l4446
  2827                           	
  2828  0595                     l2678:	
  2829                           	line	12
  2830                           	
  2831  0595                     l4446:	
  2832  0595  0825               	movf	(___wmul@product+1),w
  2833  0596  01A1               	clrf	(?___wmul+1)
  2834  0597  07A1               	addwf	(?___wmul+1)
  2835  0598  0824               	movf	(___wmul@product),w
  2836  0599  01A0               	clrf	(?___wmul)
  2837  059A  07A0               	addwf	(?___wmul)
  2838                           
  2839  059B  2D9C               	goto	l2679
  2840                           	
  2841  059C                     l4448:	
  2842                           	line	13
  2843                           	
  2844  059C                     l2679:	
  2845  059C  0008               	return
  2846                           	opt stack 0
  2847                           GLOBAL	__end_of___wmul
  2848  059D                     	__end_of___wmul:
  2849 ;; =============== function ___wmul ends ============
  2850                           
  2851                           	signat	___wmul,8314
  2852                           	global	___bmul
  2853                           psect	text350,local,class=CODE,delta=2
  2854                           global __ptext350
  2855  05FA                     __ptext350:
  2856                           
  2857 ;; *************** function ___bmul *****************
  2858 ;; Defined at:
  2859 ;;		line 3 in file "C:\Program Files (x86)\HI-TECH Software\PICC\9.82\sources\bmul.c"
  2860 ;; Parameters:    Size  Location     Type
  2861 ;;  multiplier      1    wreg     unsigned char 
  2862 ;;  multiplicand    1    0[BANK0 ] unsigned char 
  2863 ;; Auto vars:     Size  Location     Type
  2864 ;;  multiplier      1    3[BANK0 ] unsigned char 
  2865 ;;  product         1    2[BANK0 ] unsigned char 
  2866 ;; Return value:  Size  Location     Type
  2867 ;;                  1    wreg      unsigned char 
  2868 ;; Registers used:
  2869 ;;		wreg, status,2, status,0
  2870 ;; Tracked objects:
  2871 ;;		On entry : 0/0
  2872 ;;		On exit  : 0/0
  2873 ;;		Unchanged: 0/0
  2874 ;; Data sizes:     COMMON   BANK0   BANK1   BANK3   BANK2
  2875 ;;      Params:         0       1       0       0       0
  2876 ;;      Locals:         0       2       0       0       0
  2877 ;;      Temps:          0       1       0       0       0
  2878 ;;      Totals:         0       4       0       0       0
  2879 ;;Total ram usage:        4 bytes
  2880 ;; Hardware stack levels used:    1
  2881 ;; Hardware stack levels required when called:    1
  2882 ;; This function calls:
  2883 ;;		Nothing
  2884 ;; This function is called by:
  2885 ;;		_div
  2886 ;;		_speed_calculate
  2887 ;; This function uses a non-reentrant model
  2888 ;;
  2889                           psect	text350
  2890                           	file	"C:\Program Files (x86)\HI-TECH Software\PICC\9.82\sources\bmul.c"
  2891                           	line	3
  2892                           	global	__size_of___bmul
  2893  001A                     	__size_of___bmul	equ	__end_of___bmul-___bmul
  2894                           	
  2895  05FA                     ___bmul:	
  2896                           	opt	stack 5
  2897                           ; Regs used in ___bmul: [wreg+status,2+status,0]
  2898                           ;___bmul@multiplier stored from wreg
  2899  05FA  1283               	bcf	status, 5	;RP0=0, select bank0
  2900  05FB  1303               	bcf	status, 6	;RP1=0, select bank0
  2901  05FC  00A3               	movwf	(___bmul@multiplier)
  2902                           	line	4
  2903                           	
  2904  05FD                     l4424:	
  2905  05FD  01A2               	clrf	(___bmul@product)
  2906                           	line	6
  2907                           	
  2908  05FE                     l2670:	
  2909                           	line	7
  2910  05FE  1C23               	btfss	(___bmul@multiplier),(0)&7
  2911  05FF  2E01               	goto	u2451
  2912  0600  2E02               	goto	u2450
  2913  0601                     u2451:
  2914  0601  2E07               	goto	l4428
  2915  0602                     u2450:
  2916                           	line	8
  2917                           	
  2918  0602                     l4426:	
  2919  0602  0820               	movf	(___bmul@multiplicand),w
  2920  0603  00A1               	movwf	(??___bmul+0)+0
  2921  0604  0821               	movf	(??___bmul+0)+0,w
  2922  0605  07A2               	addwf	(___bmul@product),f
  2923  0606  2E07               	goto	l4428
  2924                           	
  2925  0607                     l2671:	
  2926                           	line	9
  2927                           	
  2928  0607                     l4428:	
  2929  0607  1003               	clrc
  2930  0608  0DA0               	rlf	(___bmul@multiplicand),f
  2931                           
  2932                           	line	10
  2933                           	
  2934  0609                     l4430:	
  2935  0609  1003               	clrc
  2936  060A  0CA3               	rrf	(___bmul@multiplier),f
  2937                           
  2938                           	line	11
  2939                           	
  2940  060B                     l4432:	
  2941  060B  08A3               	movf	(___bmul@multiplier),f
  2942  060C  1D03               	skipz
  2943  060D  2E0F               	goto	u2461
  2944  060E  2E10               	goto	u2460
  2945  060F                     u2461:
  2946  060F  2DFE               	goto	l2670
  2947  0610                     u2460:
  2948  0610  2E11               	goto	l4434
  2949                           	
  2950  0611                     l2672:	
  2951                           	line	12
  2952                           	
  2953  0611                     l4434:	
  2954  0611  0822               	movf	(___bmul@product),w
  2955  0612  2E13               	goto	l2673
  2956                           	
  2957  0613                     l4436:	
  2958                           	line	13
  2959                           	
  2960  0613                     l2673:	
  2961  0613  0008               	return
  2962                           	opt stack 0
  2963                           GLOBAL	__end_of___bmul
  2964  0614                     	__end_of___bmul:
  2965 ;; =============== function ___bmul ends ============
  2966                           
  2967                           	signat	___bmul,8313
  2968                           	global	_eeprom_write
  2969                           psect	text351,local,class=CODE,delta=2
  2970                           global __ptext351
  2971  0536                     __ptext351:
  2972                           
  2973 ;; *************** function _eeprom_write *****************
  2974 ;; Defined at:
  2975 ;;		line 7 in file "C:\Program Files (x86)\HI-TECH Software\PICC\9.82\sources\eewrite.c"
  2976 ;; Parameters:    Size  Location     Type
  2977 ;;  addr            1    wreg     unsigned char 
  2978 ;;  value           1    0[BANK0 ] unsigned char 
  2979 ;; Auto vars:     Size  Location     Type
  2980 ;;  addr            1    2[BANK0 ] unsigned char 
  2981 ;; Return value:  Size  Location     Type
  2982 ;;                  1    wreg      unsigned char 
  2983 ;; Registers used:
  2984 ;;		wreg, status,2, status,0
  2985 ;; Tracked objects:
  2986 ;;		On entry : 0/0
  2987 ;;		On exit  : 0/0
  2988 ;;		Unchanged: 0/0
  2989 ;; Data sizes:     COMMON   BANK0   BANK1   BANK3   BANK2
  2990 ;;      Params:         0       1       0       0       0
  2991 ;;      Locals:         0       1       0       0       0
  2992 ;;      Temps:          0       1       0       0       0
  2993 ;;      Totals:         0       3       0       0       0
  2994 ;;Total ram usage:        3 bytes
  2995 ;; Hardware stack levels used:    1
  2996 ;; Hardware stack levels required when called:    1
  2997 ;; This function calls:
  2998 ;;		Nothing
  2999 ;; This function is called by:
  3000 ;;		_main
  3001 ;; This function uses a non-reentrant model
  3002 ;;
  3003                           psect	text351
  3004                           	file	"C:\Program Files (x86)\HI-TECH Software\PICC\9.82\sources\eewrite.c"
  3005                           	line	7
  3006                           	global	__size_of_eeprom_write
  3007  003B                     	__size_of_eeprom_write	equ	__end_of_eeprom_write-_eeprom_write
  3008                           	
  3009  0536                     _eeprom_write:	
  3010                           	opt	stack 6
  3011                           ; Regs used in _eeprom_write: [wreg+status,2+status,0]
  3012                           ;eeprom_write@addr stored from wreg
  3013  0536  1283               	bcf	status, 5	;RP0=0, select bank0
  3014  0537  1303               	bcf	status, 6	;RP1=0, select bank0
  3015  0538  00A2               	movwf	(eeprom_write@addr)
  3016                           	line	8
  3017                           	
  3018  0539                     l1986:	
  3019  0539  2D3A               	goto	l1987
  3020                           	
  3021  053A                     l1988:	
  3022                           	
  3023  053A                     l1987:	
  3024  053A  1683               	bsf	status, 5	;RP0=1, select bank3
  3025  053B  1703               	bsf	status, 6	;RP1=1, select bank3
  3026  053C  188C               	btfsc	(3169/8)^0180h,(3169)&7
  3027  053D  2D3F               	goto	u2421
  3028  053E  2D40               	goto	u2420
  3029  053F                     u2421:
  3030  053F  2D3A               	goto	l1987
  3031  0540                     u2420:
  3032  0540  2D41               	goto	l4404
  3033                           	
  3034  0541                     l1989:	
  3035                           	
  3036  0541                     l4404:	
  3037  0541  1283               	bcf	status, 5	;RP0=0, select bank0
  3038  0542  1303               	bcf	status, 6	;RP1=0, select bank0
  3039  0543  0822               	movf	(eeprom_write@addr),w
  3040  0544  1283               	bcf	status, 5	;RP0=0, select bank2
  3041  0545  1703               	bsf	status, 6	;RP1=1, select bank2
  3042  0546  008D               	movwf	(269)^0100h	;volatile
  3043  0547  1283               	bcf	status, 5	;RP0=0, select bank0
  3044  0548  1303               	bcf	status, 6	;RP1=0, select bank0
  3045  0549  0820               	movf	(eeprom_write@value),w
  3046  054A  1283               	bcf	status, 5	;RP0=0, select bank2
  3047  054B  1703               	bsf	status, 6	;RP1=1, select bank2
  3048  054C  008C               	movwf	(268)^0100h	;volatile
  3049                           	
  3050  054D                     l4406:	
  3051  054D  303F               	movlw	(03Fh)
  3052  054E  1283               	bcf	status, 5	;RP0=0, select bank0
  3053  054F  1303               	bcf	status, 6	;RP1=0, select bank0
  3054  0550  00A1               	movwf	(??_eeprom_write+0)+0
  3055  0551  0821               	movf	(??_eeprom_write+0)+0,w
  3056  0552  1683               	bsf	status, 5	;RP0=1, select bank3
  3057  0553  1703               	bsf	status, 6	;RP1=1, select bank3
  3058  0554  058C               	andwf	(396)^0180h,f	;volatile
  3059                           	
  3060  0555                     l4408:	
  3061  0555  1283               	bcf	status, 5	;RP0=0, select bank0
  3062  0556  1303               	bcf	status, 6	;RP1=0, select bank0
  3063  0557  1003               	bcf	(24/8),(24)&7
  3064                           	
  3065  0558                     l4410:	
  3066  0558  1F8B               	btfss	(95/8),(95)&7
  3067  0559  2D5B               	goto	u2431
  3068  055A  2D5C               	goto	u2430
  3069  055B                     u2431:
  3070  055B  2D5D               	goto	l1990
  3071  055C                     u2430:
  3072                           	
  3073  055C                     l4412:	
  3074  055C  1403               	bsf	(24/8),(24)&7
  3075                           	
  3076  055D                     l1990:	
  3077  055D  138B               	bcf	(95/8),(95)&7
  3078  055E  1683               	bsf	status, 5	;RP0=1, select bank3
  3079  055F  1703               	bsf	status, 6	;RP1=1, select bank3
  3080  0560  150C               	bsf	(3170/8)^0180h,(3170)&7
  3081                           	
  3082  0561                     l4414:	
  3083  0561  3055               	movlw	(055h)
  3084  0562  008D               	movwf	(397)^0180h	;volatile
  3085  0563  30AA               	movlw	(0AAh)
  3086  0564  008D               	movwf	(397)^0180h	;volatile
  3087                           	
  3088  0565                     l4416:	
  3089  0565  148C               	bsf	(3169/8)^0180h,(3169)&7
  3090                           	
  3091  0566                     l4418:	
  3092  0566  110C               	bcf	(3170/8)^0180h,(3170)&7
  3093                           	
  3094  0567                     l4420:	
  3095  0567  1283               	bcf	status, 5	;RP0=0, select bank0
  3096  0568  1303               	bcf	status, 6	;RP1=0, select bank0
  3097  0569  1C03               	btfss	(24/8),(24)&7
  3098  056A  2D6C               	goto	u2441
  3099  056B  2D6D               	goto	u2440
  3100  056C                     u2441:
  3101  056C  2D70               	goto	l1993
  3102  056D                     u2440:
  3103                           	
  3104  056D                     l4422:	
  3105  056D  178B               	bsf	(95/8),(95)&7
  3106  056E  2D70               	goto	l1993
  3107                           	
  3108  056F                     l1991:	
  3109  056F  2D70               	goto	l1993
  3110                           	
  3111  0570                     l1992:	
  3112                           	line	10
  3113                           ;	Return value of _eeprom_write is never used
  3114                           	
  3115  0570                     l1993:	
  3116  0570  0008               	return
  3117                           	opt stack 0
  3118                           GLOBAL	__end_of_eeprom_write
  3119  0571                     	__end_of_eeprom_write:
  3120 ;; =============== function _eeprom_write ends ============
  3121                           
  3122                           	signat	_eeprom_write,8313
  3123                           	global	_eeprom_read
  3124                           psect	text352,local,class=CODE,delta=2
  3125                           global __ptext352
  3126  059D                     __ptext352:
  3127                           
  3128 ;; *************** function _eeprom_read *****************
  3129 ;; Defined at:
  3130 ;;		line 7 in file "eeread.c"
  3131 ;; Parameters:    Size  Location     Type
  3132 ;;  addr            1    wreg     unsigned char 
  3133 ;; Auto vars:     Size  Location     Type
  3134 ;;  addr            1    1[BANK0 ] unsigned char 
  3135 ;; Return value:  Size  Location     Type
  3136 ;;                  1    wreg      unsigned char 
  3137 ;; Registers used:
  3138 ;;		wreg, status,2, status,0
  3139 ;; Tracked objects:
  3140 ;;		On entry : 0/0
  3141 ;;		On exit  : 0/0
  3142 ;;		Unchanged: 0/0
  3143 ;; Data sizes:     COMMON   BANK0   BANK1   BANK3   BANK2
  3144 ;;      Params:         0       0       0       0       0
  3145 ;;      Locals:         0       1       0       0       0
  3146 ;;      Temps:          0       1       0       0       0
  3147 ;;      Totals:         0       2       0       0       0
  3148 ;;Total ram usage:        2 bytes
  3149 ;; Hardware stack levels used:    1
  3150 ;; Hardware stack levels required when called:    1
  3151 ;; This function calls:
  3152 ;;		Nothing
  3153 ;; This function is called by:
  3154 ;;		_main
  3155 ;; This function uses a non-reentrant model
  3156 ;;
  3157                           psect	text352
  3158                           	file	"C:\Program Files (x86)\HI-TECH Software\PICC\9.82\sources\eeread.c"
  3159                           	line	7
  3160                           	global	__size_of_eeprom_read
  3161  0025                     	__size_of_eeprom_read	equ	__end_of_eeprom_read-_eeprom_read
  3162                           	
  3163  059D                     _eeprom_read:	
  3164                           	opt	stack 6
  3165                           ; Regs used in _eeprom_read: [wreg+status,2+status,0]
  3166                           ;eeprom_read@addr stored from wreg
  3167                           	line	9
  3168  059D  1283               	bcf	status, 5	;RP0=0, select bank0
  3169  059E  1303               	bcf	status, 6	;RP1=0, select bank0
  3170  059F  00A1               	movwf	(eeprom_read@addr)
  3171                           	line	8
  3172                           	
  3173  05A0                     l1369:	
  3174                           	line	9
  3175                           # 9 "C:\Program Files (x86)\HI-TECH Software\PICC\9.82\sources\eeread.c"
  3176  05A0  0064               clrwdt ;#
  3177                           psect	text352
  3178                           	line	10
  3179  05A1  1683               	bsf	status, 5	;RP0=1, select bank3
  3180  05A2  1703               	bsf	status, 6	;RP1=1, select bank3
  3181  05A3  188C               	btfsc	(3169/8)^0180h,(3169)&7
  3182  05A4  2DA6               	goto	u2411
  3183  05A5  2DA7               	goto	u2410
  3184  05A6                     u2411:
  3185  05A6  2DA0               	goto	l1369
  3186  05A7                     u2410:
  3187  05A7  2DA8               	goto	l4400
  3188                           	
  3189  05A8                     l1370:	
  3190                           	line	11
  3191                           	
  3192  05A8                     l4400:	
  3193  05A8  1283               	bcf	status, 5	;RP0=0, select bank0
  3194  05A9  1303               	bcf	status, 6	;RP1=0, select bank0
  3195  05AA  0821               	movf	(eeprom_read@addr),w
  3196  05AB  1283               	bcf	status, 5	;RP0=0, select bank2
  3197  05AC  1703               	bsf	status, 6	;RP1=1, select bank2
  3198  05AD  008D               	movwf	(269)^0100h	;volatile
  3199  05AE  303F               	movlw	(03Fh)
  3200  05AF  1283               	bcf	status, 5	;RP0=0, select bank0
  3201  05B0  1303               	bcf	status, 6	;RP1=0, select bank0
  3202  05B1  00A0               	movwf	(??_eeprom_read+0)+0
  3203  05B2  0820               	movf	(??_eeprom_read+0)+0,w
  3204  05B3  1683               	bsf	status, 5	;RP0=1, select bank3
  3205  05B4  1703               	bsf	status, 6	;RP1=1, select bank3
  3206  05B5  058C               	andwf	(396)^0180h,f	;volatile
  3207  05B6  140C               	bsf	(3168/8)^0180h,(3168)&7
  3208  05B7  1003               	clrc
  3209  05B8  180C               	btfsc	(3168/8)^0180h,(3168)&7
  3210  05B9  1403               	setc
  3211  05BA  3000               	movlw	0
  3212  05BB  1803               	skipnc
  3213  05BC  3001               	movlw	1
  3214                           
  3215  05BD  1283               	bcf	status, 5	;RP0=0, select bank2
  3216  05BE  1703               	bsf	status, 6	;RP1=1, select bank2
  3217  05BF  080C               	movf	(268)^0100h,w	;volatile
  3218  05C0  2DC1               	goto	l1371
  3219                           	
  3220  05C1                     l4402:	
  3221                           	line	12
  3222                           	
  3223  05C1                     l1371:	
  3224  05C1  0008               	return
  3225                           	opt stack 0
  3226                           GLOBAL	__end_of_eeprom_read
  3227  05C2                     	__end_of_eeprom_read:
  3228 ;; =============== function _eeprom_read ends ============
  3229                           
  3230                           	signat	_eeprom_read,4217
  3231                           	global	_DELAY
  3232                           psect	text353,local,class=CODE,delta=2
  3233                           global __ptext353
  3234  05DE                     __ptext353:
  3235                           
  3236 ;; *************** function _DELAY *****************
  3237 ;; Defined at:
  3238 ;;		line 12 in file "D:\OneDrive - asd\WeiJi\Mplab_workspace\sy4\Untitled.c"
  3239 ;; Parameters:    Size  Location     Type
  3240 ;;		None
  3241 ;; Auto vars:     Size  Location     Type
  3242 ;;  i               2    0[BANK0 ] unsigned int 
  3243 ;; Return value:  Size  Location     Type
  3244 ;;		None               void
  3245 ;; Registers used:
  3246 ;;		wreg, status,2, status,0
  3247 ;; Tracked objects:
  3248 ;;		On entry : 0/0
  3249 ;;		On exit  : 0/0
  3250 ;;		Unchanged: 0/0
  3251 ;; Data sizes:     COMMON   BANK0   BANK1   BANK3   BANK2
  3252 ;;      Params:         0       0       0       0       0
  3253 ;;      Locals:         0       2       0       0       0
  3254 ;;      Temps:          0       0       0       0       0
  3255 ;;      Totals:         0       2       0       0       0
  3256 ;;Total ram usage:        2 bytes
  3257 ;; Hardware stack levels used:    1
  3258 ;; Hardware stack levels required when called:    1
  3259 ;; This function calls:
  3260 ;;		Nothing
  3261 ;; This function is called by:
  3262 ;;		_ENABLE
  3263 ;;		_ENABLE1
  3264 ;;		_main
  3265 ;; This function uses a non-reentrant model
  3266 ;;
  3267                           psect	text353
  3268                           	file	"D:\OneDrive - asd\WeiJi\Mplab_workspace\sy4\Untitled.c"
  3269                           	global	__size_of_DELAY
  3270  001C                     	__size_of_DELAY	equ	__end_of_DELAY-_DELAY
  3271                           	
  3272  05DE                     _DELAY:	
  3273                           	opt	stack 5
  3274                           ; Regs used in _DELAY: [wreg+status,2+status,0]
  3275                           	
  3276  05DE                     l4352:	
  3277  05DE  30E7               	movlw	low(03E7h)
  3278  05DF  1283               	bcf	status, 5	;RP0=0, select bank0
  3279  05E0  1303               	bcf	status, 6	;RP1=0, select bank0
  3280  05E1  00A0               	movwf	(DELAY@i)
  3281  05E2  3003               	movlw	high(03E7h)
  3282  05E3  00A1               	movwf	((DELAY@i))+1
  3283                           	
  3284  05E4                     l4354:	
  3285  05E4  0821               	movf	((DELAY@i+1)),w
  3286  05E5  0420               	iorwf	((DELAY@i)),w
  3287  05E6  1D03               	skipz
  3288  05E7  2DE9               	goto	u2341
  3289  05E8  2DEA               	goto	u2340
  3290  05E9                     u2341:
  3291  05E9  2DEC               	goto	l4358
  3292  05EA                     u2340:
  3293  05EA  2DF9               	goto	l727
  3294                           	
  3295  05EB                     l4356:	
  3296  05EB  2DF9               	goto	l727
  3297                           	
  3298  05EC                     l725:	
  3299                           	
  3300  05EC                     l4358:	
  3301  05EC  3001               	movlw	low(01h)
  3302  05ED  02A0               	subwf	(DELAY@i),f
  3303  05EE  3000               	movlw	high(01h)
  3304  05EF  1C03               	skipc
  3305  05F0  03A1               	decf	(DELAY@i+1),f
  3306  05F1  02A1               	subwf	(DELAY@i+1),f
  3307                           	
  3308  05F2                     l4360:	
  3309  05F2  0821               	movf	((DELAY@i+1)),w
  3310  05F3  0420               	iorwf	((DELAY@i)),w
  3311  05F4  1D03               	skipz
  3312  05F5  2DF7               	goto	u2351
  3313  05F6  2DF8               	goto	u2350
  3314  05F7                     u2351:
  3315  05F7  2DEC               	goto	l4358
  3316  05F8                     u2350:
  3317  05F8  2DF9               	goto	l727
  3318                           	
  3319  05F9                     l726:	
  3320                           	
  3321  05F9                     l727:	
  3322  05F9  0008               	return
  3323                           	opt stack 0
  3324                           GLOBAL	__end_of_DELAY
  3325  05FA                     	__end_of_DELAY:
  3326 ;; =============== function _DELAY ends ============
  3327                           
  3328                           	signat	_DELAY,88
  3329                           	global	_int_serve
  3330                           psect	text354,local,class=CODE,delta=2
  3331                           global __ptext354
  3332  0311                     __ptext354:
  3333                           
  3334 ;; *************** function _int_serve *****************
  3335 ;; Defined at:
  3336 ;;		line 40 in file "D:\OneDrive - asd\WeiJi\Mplab_workspace\sy4\Untitled.c"
  3337 ;; Parameters:    Size  Location     Type
  3338 ;;		None
  3339 ;; Auto vars:     Size  Location     Type
  3340 ;;		None
  3341 ;; Return value:  Size  Location     Type
  3342 ;;		None               void
  3343 ;; Registers used:
  3344 ;;		wreg, status,2, status,0, btemp+1
  3345 ;; Tracked objects:
  3346 ;;		On entry : 0/0
  3347 ;;		On exit  : 0/0
  3348 ;;		Unchanged: 0/0
  3349 ;; Data sizes:     COMMON   BANK0   BANK1   BANK3   BANK2
  3350 ;;      Params:         0       0       0       0       0
  3351 ;;      Locals:         0       0       0       0       0
  3352 ;;      Temps:         10       0       0       0       0
  3353 ;;      Totals:        10       0       0       0       0
  3354 ;;Total ram usage:       10 bytes
  3355 ;; Hardware stack levels used:    1
  3356 ;; This function calls:
  3357 ;;		Nothing
  3358 ;; This function is called by:
  3359 ;;		Interrupt level 1
  3360 ;; This function uses a non-reentrant model
  3361 ;;
  3362                           psect	text354
  3363                           	file	"D:\OneDrive - asd\WeiJi\Mplab_workspace\sy4\Untitled.c"
  3364                           	line	40
  3365                           	global	__size_of_int_serve
  3366  008B                     	__size_of_int_serve	equ	__end_of_int_serve-_int_serve
  3367                           	
  3368  0311                     _int_serve:	
  3369                           	opt	stack 5
  3370                           ; Regs used in _int_serve: [wreg+status,2+status,0+btemp+1]
  3371                           psect	intentry,class=CODE,delta=2
  3372                           global __pintentry
  3373  0004                     __pintentry:
  3374                           global interrupt_function
  3375  0004                     interrupt_function:
  3376                           	global saved_w
  3377  007E                     	saved_w	set	btemp+0
  3378  0004  00FE               	movwf	saved_w
  3379  0005  0E03               	swapf	status,w
  3380  0006  00F6               	movwf	(??_int_serve+6)
  3381  0007  0804               	movf	fsr0,w
  3382  0008  00F7               	movwf	(??_int_serve+7)
  3383  0009  080A               	movf	pclath,w
  3384  000A  00F8               	movwf	(??_int_serve+8)
  3385  000B  1283               	bcf	status, 5	;RP0=0, select bank0
  3386  000C  1303               	bcf	status, 6	;RP1=0, select bank0
  3387  000D  087F               	movf	btemp+1,w
  3388  000E  00F9               	movwf	(??_int_serve+9)
  3389  000F  120A  118A  2B11   	ljmp	_int_serve
  3390                           psect	text354
  3391                           	line	41
  3392                           	
  3393  0311                     i1l4362:	
  3394                           ;Untitled.c: 41: if (T0IF==1){n ++;T0IF =0;}
  3395  0311  1D0B               	btfss	(90/8),(90)&7
  3396  0312  2B14               	goto	u236_21
  3397  0313  2B15               	goto	u236_20
  3398  0314                     u236_21:
  3399  0314  2B1D               	goto	i1l4368
  3400  0315                     u236_20:
  3401                           	
  3402  0315                     i1l4364:	
  3403  0315  3001               	movlw	low(01h)
  3404  0316  07C9               	addwf	(_n),f
  3405  0317  1803               	skipnc
  3406  0318  0ACA               	incf	(_n+1),f
  3407  0319  3000               	movlw	high(01h)
  3408  031A  07CA               	addwf	(_n+1),f
  3409                           	
  3410  031B                     i1l4366:	
  3411  031B  110B               	bcf	(90/8),(90)&7
  3412  031C  2B91               	goto	i1l748
  3413                           	line	42
  3414                           	
  3415  031D                     i1l742:	
  3416                           	line	44
  3417                           	
  3418  031D                     i1l4368:	
  3419                           ;Untitled.c: 42: else
  3420                           ;Untitled.c: 43: {
  3421                           ;Untitled.c: 44: count_temp ++;
  3422  031D  3001               	movlw	low(01h)
  3423  031E  07C7               	addwf	(_count_temp),f
  3424  031F  1803               	skipnc
  3425  0320  0AC8               	incf	(_count_temp+1),f
  3426  0321  3000               	movlw	high(01h)
  3427  0322  07C8               	addwf	(_count_temp+1),f
  3428                           	line	45
  3429                           ;Untitled.c: 45: if (count_temp ==740){li_cheng.count ++; count_temp =0;};
  3430  0323  3002               	movlw	high(02E4h)
  3431  0324  0648               	xorwf	(_count_temp+1),w
  3432  0325  1D03               	skipz
  3433  0326  2B29               	goto	u237_25
  3434  0327  30E4               	movlw	low(02E4h)
  3435  0328  0647               	xorwf	(_count_temp),w
  3436  0329                     u237_25:
  3437                           
  3438  0329  1D03               	skipz
  3439  032A  2B2C               	goto	u237_21
  3440  032B  2B2D               	goto	u237_20
  3441  032C                     u237_21:
  3442  032C  2B3E               	goto	i1l4374
  3443  032D                     u237_20:
  3444                           	
  3445  032D                     i1l4370:	
  3446  032D  3001               	movlw	01h
  3447  032E  07C3               	addwf	(_li_cheng),f
  3448  032F  3000               	movlw	0
  3449  0330  1803               	skipnc
  3450  0331  3001               movlw 1
  3451  0332  07C4               	addwf	(_li_cheng+1),f
  3452  0333  3000               	movlw	0
  3453  0334  1803               	skipnc
  3454  0335  3001               movlw 1
  3455  0336  07C5               	addwf	(_li_cheng+2),f
  3456  0337  3000               	movlw	0
  3457  0338  1803               	skipnc
  3458  0339  3001               movlw 1
  3459  033A  07C6               	addwf	(_li_cheng+3),f
  3460                           	
  3461  033B                     i1l4372:	
  3462  033B  01C7               	clrf	(_count_temp)
  3463  033C  01C8               	clrf	(_count_temp+1)
  3464  033D  2B3E               	goto	i1l4374
  3465                           	
  3466  033E                     i1l744:	
  3467                           	line	46
  3468                           	
  3469  033E                     i1l4374:	
  3470                           ;Untitled.c: 46: if (li_cheng.count==0x927C0){INTE =0;RE0=1;};
  3471  033E  3000               	movlw	0
  3472  033F  0646               	xorwf	(_li_cheng+3),w
  3473  0340  1D03               	skipz
  3474  0341  2B4C               	goto	u238_25
  3475  0342  3009               	movlw	09h
  3476  0343  0645               	xorwf	(_li_cheng+2),w
  3477  0344  1D03               	skipz
  3478  0345  2B4C               	goto	u238_25
  3479  0346  3027               	movlw	027h
  3480  0347  0644               	xorwf	(_li_cheng+1),w
  3481  0348  1D03               	skipz
  3482  0349  2B4C               	goto	u238_25
  3483  034A  30C0               	movlw	0C0h
  3484  034B  0643               	xorwf	(_li_cheng),w
  3485  034C                     u238_25:
  3486  034C  1D03               	skipz
  3487  034D  2B4F               	goto	u238_21
  3488  034E  2B50               	goto	u238_20
  3489  034F                     u238_21:
  3490  034F  2B53               	goto	i1l4378
  3491  0350                     u238_20:
  3492                           	
  3493  0350                     i1l4376:	
  3494  0350  120B               	bcf	(92/8),(92)&7
  3495  0351  1409               	bsf	(72/8),(72)&7
  3496  0352  2B53               	goto	i1l4378
  3497                           	
  3498  0353                     i1l745:	
  3499                           	line	47
  3500                           	
  3501  0353                     i1l4378:	
  3502                           ;Untitled.c: 47: m ++;
  3503  0353  3001               	movlw	(01h)
  3504  0354  00F0               	movwf	(??_int_serve+0)+0
  3505  0355  0870               	movf	(??_int_serve+0)+0,w
  3506  0356  07D2               	addwf	(_m),f
  3507                           	line	48
  3508                           	
  3509  0357                     i1l4380:	
  3510                           ;Untitled.c: 48: if (m ==0)
  3511  0357  08D2               	movf	(_m),f
  3512  0358  1D03               	skipz
  3513  0359  2B5B               	goto	u239_21
  3514  035A  2B5C               	goto	u239_20
  3515  035B                     u239_21:
  3516  035B  2B65               	goto	i1l4390
  3517  035C                     u239_20:
  3518                           	line	49
  3519                           	
  3520  035C                     i1l4382:	
  3521                           ;Untitled.c: 49: {n =0;tmr01=TMR0;T0IE=1;T0IF=0;};
  3522  035C  01C9               	clrf	(_n)
  3523  035D  01CA               	clrf	(_n+1)
  3524                           	
  3525  035E                     i1l4384:	
  3526  035E  0801               	movf	(1),w	;volatile
  3527  035F  00F0               	movwf	(??_int_serve+0)+0
  3528  0360  0870               	movf	(??_int_serve+0)+0,w
  3529  0361  00FA               	movwf	(_tmr01)
  3530                           	
  3531  0362                     i1l4386:	
  3532  0362  168B               	bsf	(93/8),(93)&7
  3533                           	
  3534  0363                     i1l4388:	
  3535  0363  110B               	bcf	(90/8),(90)&7
  3536  0364  2B65               	goto	i1l4390
  3537                           	
  3538  0365                     i1l746:	
  3539                           	line	50
  3540                           	
  3541  0365                     i1l4390:	
  3542                           ;Untitled.c: 50: if (m==1)
  3543  0365  0852               	movf	(_m),w
  3544  0366  3A01               	xorlw	01h
  3545  0367  1D03               	skipz
  3546  0368  2B6A               	goto	u240_21
  3547  0369  2B6B               	goto	u240_20
  3548  036A                     u240_21:
  3549  036A  2B8F               	goto	i1l4398
  3550  036B                     u240_20:
  3551                           	line	51
  3552                           	
  3553  036B                     i1l4392:	
  3554                           ;Untitled.c: 51: {tmr02=TMR0;T0IE=0;t_speed = n*256+(tmr02-tmr01);};
  3555  036B  0801               	movf	(1),w	;volatile
  3556  036C  00F0               	movwf	(??_int_serve+0)+0
  3557  036D  0870               	movf	(??_int_serve+0)+0,w
  3558  036E  00FB               	movwf	(_tmr02)
  3559                           	
  3560  036F                     i1l4394:	
  3561  036F  128B               	bcf	(93/8),(93)&7
  3562                           	
  3563  0370                     i1l4396:	
  3564  0370  087A               	movf	(_tmr01),w
  3565  0371  00F0               	movwf	(??_int_serve+0)+0
  3566  0372  01F1               	clrf	(??_int_serve+0)+0+1
  3567  0373  09F0               	comf	(??_int_serve+0)+0,f
  3568  0374  09F1               	comf	(??_int_serve+0)+1,f
  3569  0375  0AF0               	incf	(??_int_serve+0)+0,f
  3570  0376  1903               	skipnz
  3571  0377  0AF1               	incf	(??_int_serve+0)+1,f
  3572  0378  084A               	movf	(_n+1),w
  3573  0379  00F3               	movwf	(??_int_serve+2)+0+1
  3574  037A  0849               	movf	(_n),w
  3575  037B  00F2               	movwf	(??_int_serve+2)+0
  3576  037C  0872               	movf	(??_int_serve+2)+0,w
  3577  037D  00F3               	movwf	(??_int_serve+2)+1
  3578  037E  01F2               	clrf	(??_int_serve+2)+0
  3579  037F  087B               	movf	(_tmr02),w
  3580  0380  0772               	addwf	0+(??_int_serve+2)+0,w
  3581  0381  00F4               	movwf	(??_int_serve+4)+0
  3582  0382  0873               	movf	1+(??_int_serve+2)+0,w
  3583  0383  1803               	skipnc
  3584  0384  0A73               	incf	1+(??_int_serve+2)+0,w
  3585  0385  00F5               	movwf	((??_int_serve+4)+0)+1
  3586  0386  0870               	movf	0+(??_int_serve+0)+0,w
  3587  0387  0774               	addwf	0+(??_int_serve+4)+0,w
  3588  0388  00D3               	movwf	(_t_speed)
  3589  0389  0871               	movf	1+(??_int_serve+0)+0,w
  3590  038A  1803               	skipnc
  3591  038B  0A71               	incf	1+(??_int_serve+0)+0,w
  3592  038C  0775               	addwf	1+(??_int_serve+4)+0,w
  3593  038D  00D4               	movwf	1+(_t_speed)
  3594  038E  2B8F               	goto	i1l4398
  3595                           	
  3596  038F                     i1l747:	
  3597                           	line	52
  3598                           	
  3599  038F                     i1l4398:	
  3600                           ;Untitled.c: 52: INTF =0;
  3601  038F  108B               	bcf	(89/8),(89)&7
  3602  0390  2B91               	goto	i1l748
  3603                           	line	53
  3604                           	
  3605  0391                     i1l743:	
  3606                           	line	54
  3607                           	
  3608  0391                     i1l748:	
  3609  0391  0879               	movf	(??_int_serve+9),w
  3610  0392  00FF               	movwf	btemp+1
  3611  0393  0878               	movf	(??_int_serve+8),w
  3612  0394  008A               	movwf	pclath
  3613  0395  0877               	movf	(??_int_serve+7),w
  3614  0396  0084               	movwf	fsr0
  3615  0397  0E76               	swapf	(??_int_serve+6)^0FFFFFF80h,w
  3616  0398  0083               	movwf	status
  3617  0399  0EFE               	swapf	saved_w,f
  3618  039A  0E7E               	swapf	saved_w,w
  3619  039B  0009               	retfie
  3620                           	opt stack 0
  3621                           GLOBAL	__end_of_int_serve
  3622  039C                     	__end_of_int_serve:
  3623 ;; =============== function _int_serve ends ============
  3624                           
  3625                           	signat	_int_serve,88
  3626                           psect	text355,local,class=CODE,delta=2
  3627                           global __ptext355
  3628  0000                     __ptext355:
  3629                           	global	btemp
  3630  007E                     	btemp set 07Eh
  3631                           
  3632                           	DABS	1,126,2	;btemp
  3633                           	global	wtemp0
  3634  007E                     	wtemp0 set btemp


HI-TECH Software PICC Macro Assembler V9.82 build 9453 
Symbol Table                                                                                   Tue Apr 29 19:56:14 2025

                       _a 0055                         _b 004B                         _c 004C  
                       _d 0056                         _e 004E                         _f 0050  
                       _m 0052                         _n 0049                         pc 0002  
          ___bmul@product 0022                        _RD 0C60                        _d1 004D  
                      _e1 004F                        _f1 0051                        _WR 0C61  
            ___awdiv@sign 0026                        fsr 0004       ___wmul@multiplicand 0022  
                     l730 0642                       l725 05EC                       l733 0634  
                     l726 05F9                       l727 05F9                       l751 01AF  
                     l736 0140                       l752 0265                       l753 0266  
                     l754 0266                       l739 04E9                       _GIE 005F  
                     _RA3 002B                       _RA4 002C                       _RA5 002D  
                     _RE0 0048                       _div 0015                       fsr0 0004  
                     indf 0000           __end_of_ENABLE1 0635                      l1370 05A8  
                    l1371 05C1                      l1369 05A0                      l4400 05A8  
                    ?_div 0070                      l4402 05C1                      l4410 0558  
                    l4420 0567                      l4412 055C                      l4404 0541  
                    l4500 040A                      l2820 03C6                      l2821 03D7  
                    l4422 056D                      l4414 0561                      l4406 054D  
                    l4430 0609                      l2670 05FE                      l4502 0411  
                    l2822 03D8                      l4510 0436                      l2671 0607  
                    l2751 04F5                      l2823 03F1                      l4360 05F2  
                    l4352 05DE                      l4416 0565                      l4408 0555  
                    l2672 0611                      l4432 060B                      l4424 05FD  
                    l4440 0576                      l2752 0511                      l2824 03FF  
                    l2816 03AC                      l4520 0467                      l4512 043C  
                    l4504 0412                      l4600 0160                      l2673 0613  
                    l2753 052C                      l2825 040A                      l2817 03BA  
                    l4354 05E4                      l4418 0566                      l4434 0611  
                    l4426 0602                      l4442 057A                      l2754 0535  
                    l4450 04EA                      l2826 0411                      l2818 0400  
                    l4522 0470                      l4514 0445                      l2850 0428  
                    l4506 0424                      l4530 0270                      l4610 0184  
                    l4602 0165                      l2819 03D2                      l2851 043B  
                    l4356 05EB                      l4436 0613                      l4428 0607  
                    l4444 0587                      l2676 0576                      l4460 052C  
                    l4452 04F5                      l4516 0457                      l2852 043C  
                    l4508 0428                      l4524 0478                      l4540 0293  
                    l4532 027B                      l4620 019C                      l4612 018F  
                    l4604 0169                      l2677 0580                      l2853 0467  
                    l4358 05EC                      l1990 055D                      l2678 0595  
                    l4446 0595                      l4438 0571                      l4462 0535  
                    l4454 04F9                      l4470 03B0                      l4526 0481  
                    l2854 0477                      l4518 0465                      l4550 02BB  
                    l4542 029B                      l4534 027F                      l4630 01AB  
                    l4622 019F                      l4614 0193                      l4606 016E  
                    l1991 056F                      l2679 059C                      l2855 0481  
                    l2871 027F                      l1992 0570                      l4448 059C  
                    l4456 0511                      l4480 03C6                      l4472 03B5  
                    l4464 039C                      l2848 0478                      l2880 0307  
                    l4560 02EF                      l4552 02C4                      l4544 02A3  
                    l2872 0293                      l4536 0283                      l4528 0269  
                    l4640 01B8                      l4632 01AC                      l4624 01A2  
                    l4616 0195                      l4608 0179                      l1993 0570  
                    l2849 0436                      l2881 0310                      l2873 02F7  
                    l1986 0539                      l4458 051A                      l4490 03EF  
                    l4482 03CD                      l4474 03BA                      l4466 03A3  
                    l4554 02D6                      l2874 02B5                      l4546 02A7  
                    l4562 02F7                      l4538 028E                      l4570 0635  
                    l4650 01D7                      l4642 01BD                      l4634 01AD  
                    l4626 01A5                      l4618 0198                      l1987 053A  
                    l2875 02A7                      l1988 053A                      l4492 03F1  
                    l4484 03D2                      l4476 03BC                      l4468 03AC  
                    l4564 02FB                      l4556 02E4                      l2876 02BA  
                    l4548 02B5                      l4572 063A                      l4580 0631  
                    l4660 01F9                      l4652 01DF                      l4644 01C5  
                    l4636 01AF                      l4628 01A7                      l1989 0541  
                    l2877 02BB                      l4494 03F8                      l4486 03D8  
                    l4478 03C2                      l4566 0307                      l2878 02E6  
                    l4558 02E6                      l4574 063F                      l4582 0015  
                    l4670 0223                      l4662 01FE                      l4654 01E4  
                    l4646 01CA                      l4638 01B4                      l4590 014A  
                    l2879 02F6                      l4488 03E9                      l4496 0400  
                    l4568 0310                      l4576 0627                      l4584 0482  
                    l4680 0245                      l4672 022F                      l4664 0206  
                    l4656 01EC                      l4648 01D2                      l4592 014E  
                    l4498 0404                      l4578 062C                      l4682 024A  
                    l4674 0234                      l4666 020B                      l4658 01F1  
                    l4594 0153                      l4586 0141                      l4684 0252  
                    l4676 0238                      l4668 0217                      l4596 0157  
                    l4588 0145                      l4686 0257                      l4678 023D  
                    l4598 015C                      l4688 025F                      _T0IE 005D  
                    _T0IF 005A                      u2410 05A7                      u2411 05A6  
                    u2340 05EA                      u2420 0540                      u2500 0594  
                    u2341 05E9                      u2421 053F                      u2501 0593  
                    u2350 05F8                      u2430 055C                      u2510 04F9  
                    u2351 05F7                      u2431 055B                      u2511 04F8  
                    u2440 056D                      u2600 03D6                      u2441 056C  
                    u2521 0502                      u2601 03D5                      u2450 0602  
                    u2522 0509                      u2451 0601                      u2523 0510  
                    u2460 0610                      u2620 03E9                      u2700 0457  
                    u2461 060F                      u2621 03E8                      u2701 0456  
                    u2470 057A                      u2550 052B                      u2471 0579  
                    u2551 052A                      u2535 0513                      u2615 03D9  
                    u2640 03FE                      u2560 03A3                      u2720 0476  
                    u2545 051B                      u2641 03FD                      u2625 03E5  
                    u2561 03A2                      u2721 0475                      u2705 0453  
                    u2650 0404                      u2570 03B0                      u2810 02F5  
                    u2730 0270                      u2635 03F2                      u2571 03AF  
                    u2715 0468                      u2811 02F4                      u2731 026F  
                    u2580 03C2                      u2660 0424                      u2820 02FB  
                    u2740 0283                      u2485 0581                      u2581 03C1  
                    u2661 0423                      u2805 02E7                      u2741 0282  
                    u2750 02A3                      u2830 006C                      u2495 0588  
                    u2751 02A2                      u2831 006D                      u2680 043A  
                    u2832 0072                      u2681 0439                      u2833 0073  
                    u2770 02B9                      u2595 03C7                      u2675 042A  
                    u2771 02B8                      u2765 02A9                      _INTE 005C  
                    u2790 02D6                      _INTF 0059                      u2695 043E  
                    u2791 02D5                      u2785 02BD                      u2795 02D2  
                    _TMR0 0001                      _WREN 0C62            ??_eeprom_write 0021  
                    _main 0141                      div@x 003B                      div@y 0040  
                    div@z 003F                      btemp 007E                      start 0012  
       ___bmul@multiplier 0023                     ??_div 002F           __end_of___aldiv 0311  
                   ?_main 0070           __end_of___awdiv 0412                     _EEADR 010D  
                   _DELAY 05DE                     _CARRY 0018           __end_of___lldiv 0482  
         ___awdiv@divisor 0020                     i1l742 031D                     i1l743 0391  
                   i1l744 033E                     i1l745 0353                     i1l746 0365  
                   i1l747 038F                     i1l748 0391           ___awdiv@counter 0025  
                   _PORTD 0008                     _TRISA 0085                     _TRISD 0088  
     ___lmul@multiplicand 0024                     _tmr01 007A                     _tmr02 007B  
                   _table 0058                     _speed 0057                     pclath 000A  
                   status 0003                     wtemp0 007E         ??_speed_calculate 0029  
            __end_of_main 0269                    DELAY@i 0020                 ??_ENABLE1 0022  
                  ??_main 0042                    ?_DELAY 0070                    _EEDATA 010C  
                  _EECON1 018C                    _EECON2 018D          ___awdiv@dividend 0022  
                  _ENABLE 0635                    i1l4370 032D                    i1l4362 0311  
                  i1l4380 0357                    i1l4372 033B                    i1l4364 0315  
                  i1l4382 035C                    i1l4390 0365                    i1l4374 033E  
                  i1l4366 031B                    i1l4392 036B                    i1l4384 035E  
                  i1l4376 0350                    i1l4368 031D                    i1l4394 036F  
                  i1l4386 0362                    i1l4378 0353                    i1l4396 0370  
                  i1l4388 0363                    i1l4398 038F                    u240_20 036B  
                  u240_21 036A                    u236_20 0315                    u236_21 0314  
                  u237_20 032D                    u237_21 032C                    u237_25 0329  
                  u238_20 0350                    u238_21 034F                    u238_25 034C  
                  u239_20 035C                    u239_21 035B                    _TRISA0 0428  
                  _TRISB0 0430                    _TRISE0 0448      __size_of_eeprom_read 0025  
                  ___bmul 05FA                    ___lmul 04EA                 ??___aldiv 0028  
                  ___wmul 0571                 ??___awdiv 0024                 ??___lldiv 0028  
        ___awdiv@quotient 0027      __end_of_eeprom_write 0571                    clrloop 064E  
                  saved_w 007E           eeprom_read@addr 0021             __end_of_DELAY 05FA  
     ___bmul@multiplicand 0020            __pcstackCOMMON 0070              __pidataBANK0 0643  
                 ??_DELAY 0020         eeprom_write@value 0020                   ?_ENABLE 0070  
              __pbssBANK0 0043        __size_of_int_serve 008B                __pmaintext 0141  
                 ?___bmul 0020                   ?___lmul 0020                   ?___wmul 0020  
              __pintentry 0004            ___lmul@product 0029                   _ENABLE1 0627  
         __size_of_ENABLE 000E           _speed_calculate 0482                _count_temp 0047  
   __size_of_eeprom_write 003B                   ___aldiv 0269           __size_of___bmul 001A  
                 ___awdiv 039C           __size_of___lmul 004C                   ___lldiv 0412  
         __size_of___wmul 002C              __size_of_div 012C          ___aldiv@dividend 0024  
                 _t_speed 0053         __end_of_int_serve 039C      end_of_initialization 05DA  
                 init_ram 0618              _eeprom_write 0536           ___lldiv@divisor 0020  
         ___lldiv@counter 002D          ___aldiv@quotient 002B   __end_of_speed_calculate 04EA  
          __end_of_ENABLE 0643             ??_eeprom_read 0020            __end_of___bmul 0614  
          __end_of___lmul 0536            __end_of___wmul 059D       start_initialization 05C2  
             __end_of_div 0141                  ??_ENABLE 0022                  ??___bmul 0021  
                ??___lmul 0028                  ??___wmul 0024       __end_of_eeprom_read 05C2  
             __pdataBANK0 0058                  ?_ENABLE1 0070               __pbssCOMMON 007A  
        ?_speed_calculate 0070             __pcstackBANK0 0020          eeprom_write@addr 0022  
                ?___aldiv 0020          speed_calculate@z 002C                  ?___awdiv 0020  
               __ptext341 0482                 __ptext350 05FA                 __ptext342 0015  
               __ptext351 0536                 __ptext343 0627                 __ptext352 059D  
               __ptext344 0635                 __ptext353 05DE                 __ptext345 0269  
               __ptext354 0311                 __ptext346 0412                 __ptext355 0000  
               __ptext347 039C                 __ptext348 04EA                 __ptext349 0571  
                ?___lldiv 0020            __size_of_DELAY 001C                 _int_serve 0311  
         ___aldiv@divisor 0020         interrupt_function 0004           ___aldiv@counter 0029  
          ___wmul@product 0024               _eeprom_read 059D         ___wmul@multiplier 0020  
        __size_of_ENABLE1 000E         ___lmul@multiplier 0020                ?_int_serve 0070  
               init_fetch 0614          __size_of___aldiv 00A8          __size_of___awdiv 0076  
        __size_of___lldiv 0070                  _li_cheng 0043             __size_of_main 0128  
                clear_ram 064D               ??_int_serve 0070                  intlevel1 0000  
        ___lldiv@dividend 0024                _OPTION_REG 0081          ___lldiv@quotient 0029  
            ___aldiv@sign 002A  __size_of_speed_calculate 0068             ?_eeprom_write 0020  
            ?_eeprom_read 0070  
